LIBRARY	xlslib_dll
EXPORTS
	??$_Uninitialized_move@PANPANV?$allocator@N@std@@@std@@YAPANPAN00AAV?$allocator@N@0@@Z
	?size@?$vector@PAUstyle_t@xlslib_core@@V?$allocator@PAUstyle_t@xlslib_core@@@std@@@std@@QBEIXZ
	?tabBarWidth@workbook@xlslib_core@@QAEXG@Z
	??$forward@AAUborderedXft@xlslib_core@@@std@@YAAAUborderedXft@xlslib_core@@AAU12@@Z
	??0bad_alloc@std@@QAE@PBD@Z
	??1?$_String_val@_WV?$allocator@_W@std@@@std@@QAE@XZ
	??1?$basic_stringbuf@DU?$char_traits@D@std@@V?$allocator@D@2@@std@@UAE@XZ
	??8?$_Tree_const_iterator@V?$_Tree_val@V?$_Tset_traits@PAUcolinfo_t@xlslib_core@@Vcolinfosort@2@V?$allocator@PAUcolinfo_t@xlslib_core@@@std@@$0A@@std@@@std@@@std@@QBE_NABV01@@Z
	??D?$_Vector_const_iterator@V?$_Vector_val@PAVfont_t@xlslib_core@@V?$allocator@PAVfont_t@xlslib_core@@@std@@@std@@@std@@QBEABQAVfont_t@xlslib_core@@XZ
	?MakeCRecord@CDataStorage@xlslib_core@@QAEPAVCRecord@2@XZ
	?assign@?$char_traits@_W@std@@SAXAA_WAB_W@Z
	??$write_to_stream@PBD@Private@@YAABVstr_stream@@ABV1@ABQBD@Z
	?capacity@?$vector@VCUnitStore@xlslib_core@@V?$allocator@VCUnitStore@xlslib_core@@@std@@@std@@QBEIXZ
	??1hpsf_doc_t@xlslib_core@@UAE@XZ
	xlsFontGetHeight
	??0boolean_t@xlslib_core@@AAE@AAVCGlobalRecords@1@II_NPAVxf_t@1@@Z
	?text@expression_node_factory_t@xlslib_core@@QAEPAVtext_value_node_t@2@ABV?$basic_string@DU?$char_traits@D@std@@V?$allocator@D@2@@std@@@Z
	??0CBiffSection@xlslib_core@@QAE@XZ
	??1bad_alloc@std@@UAE@XZ
	?SetBorderStyle@xf_t@xlslib_core@@QAEXW4border_side_t@2@W4border_style_t@2@@Z
	??$forward@AAI@std@@YAAAIAAI@Z
	??0?$_Tree_const_iterator@V?$_Tree_val@V?$_Tset_traits@PAVrowheight_t@xlslib_core@@Vrowheightsort@2@V?$allocator@PAVrowheight_t@xlslib_core@@@std@@$0A@@std@@@std@@@std@@QAE@PAU_Node@?$_Tree_nod@V?$_Tset_traits@PAVrowheight_t@xlslib_core@@Vrowheightsort@2@V?$allocator@PAVrowheight_t@xlslib_core@@@std@@$0A@@std@@@1@PBV?$_Tree_val@V?$_Tset_traits@PAVrowheight_t@xlslib_core@@Vrowheightsort@2@V?$allocator@PAVrowheight_t@xlslib_core@@@std@@$0A@@std@@@1@@Z
	?fillfgcolor@cell_t@xlslib_core@@QAEXE@Z
	??$_Dest_val@V?$allocator@V?$basic_string@DU?$char_traits@D@std@@V?$allocator@D@2@@std@@@std@@V?$basic_string@DU?$char_traits@D@std@@V?$allocator@D@2@@2@@std@@YAXAAV?$allocator@V?$basic_string@DU?$char_traits@D@std@@V?$allocator@D@2@@std@@@0@PAV?$basic_string@DU?$char_traits@D@std@@V?$allocator@D@2@@0@@Z
	?move@?$char_traits@D@std@@SAPADPADPBDI@Z
	??Rinsertsort@xlslib_core@@QBE_NPAVcell_t@1@0@Z
	?copy@?$char_traits@D@std@@SAPADPADPBDI@Z
	xlsCellFontname
	??0?$basic_string@DU?$char_traits@D@std@@V?$allocator@D@2@@std@@QAE@PBDI@Z
	?fontcolor@cell_t@xlslib_core@@QAEXE@Z
	??0?$fpos@H@std@@QAE@_J@Z
	??D?$_String_iterator@DU?$char_traits@D@std@@V?$allocator@D@2@@std@@QBEAADXZ
	?_Destroy@?$vector@VCUnitStore@xlslib_core@@V?$allocator@VCUnitStore@xlslib_core@@@std@@@std@@IAEXPAVCUnitStore@xlslib_core@@0@Z
	xlsWorksheetLabel
	?assign@?$char_traits@D@std@@SAXAADABD@Z
	??1?$basic_stringstream@DU?$char_traits@D@std@@V?$allocator@D@2@@std@@UAE@XZ
	?eq@?$char_traits@D@std@@SA_NABD0@Z
	?erase@?$basic_string@GU?$char_traits@G@std@@V?$allocator@G@2@@std@@QAEAAV12@II@Z
	??$write_to_stream@$$BY0BD@$$CBD@Private@@YAABVstr_stream@@ABV1@AAY0BD@$$CBD@Z
	?IsASCII@CGlobalRecords@xlslib_core@@SA_NABV?$basic_string@DU?$char_traits@D@std@@V?$allocator@D@2@@std@@@Z
	??0?$basic_stringstream@DU?$char_traits@D@std@@V?$allocator@D@2@@std@@QAE@H@Z
	?_Myptr@?$basic_string@GU?$char_traits@G@std@@V?$allocator@G@2@@std@@QBEPBGXZ
	?skipws@?$_Iosb@H@std@@2W4_Fmtflags@12@B
	??Bstr_stream@@QBE?AV?$basic_string@DU?$char_traits@D@std@@V?$allocator@D@2@@std@@XZ
	??0?$_String_const_iterator@GU?$char_traits@G@std@@V?$allocator@G@2@@std@@QAE@XZ
	??1cellarea_deref_node_t@xlslib_core@@UAE@XZ
	?MakeCBof@CDataStorage@xlslib_core@@QAEPAVCBof@2@G@Z
	?_Destroy@?$vector@NV?$allocator@N@std@@@std@@IAEXPAN0@Z
	?to_char_type@?$char_traits@D@std@@SADABH@Z
	?deallocate@?$allocator@U_Node@?$_Tree_nod@V?$_Tset_traits@PAVrowheight_t@xlslib_core@@Vrowheightsort@2@V?$allocator@PAVrowheight_t@xlslib_core@@@std@@$0A@@std@@@std@@@std@@QAEXPAU_Node@?$_Tree_nod@V?$_Tset_traits@PAVrowheight_t@xlslib_core@@Vrowheightsort@2@V?$allocator@PAVrowheight_t@xlslib_core@@@std@@$0A@@std@@@2@I@Z
	?indent@cell_t@xlslib_core@@QAEXW4indent_option_t@2@@Z
	?to_int_type@?$char_traits@D@std@@SAHABD@Z
	??$_Cons_val@V?$allocator@I@std@@IAAI@std@@YAXAAV?$allocator@I@0@PAIAAI@Z
	?FlushEm@CDataStorage@xlslib_core@@QAEXG@Z
	?assign@?$basic_string@DU?$char_traits@D@std@@V?$allocator@D@2@@std@@QAEAAV12@ABV12@@Z
	?eof@?$char_traits@D@std@@SAHXZ
	?_Grow_to@?$vector@VCUnitStore@xlslib_core@@V?$allocator@VCUnitStore@xlslib_core@@@std@@@std@@IBEII@Z
	?max_size@?$allocator@D@std@@QBEIXZ
	?_Reserve@?$vector@PAVCUnit@xlslib_core@@V?$allocator@PAVCUnit@xlslib_core@@@std@@@std@@IAEXI@Z
	??0CFormat@xlslib_core@@IAE@AAVCDataStorage@1@PBVformat_t@1@@Z
	?underflow@?$basic_stringbuf@DU?$char_traits@D@std@@V?$allocator@D@2@@std@@MAEHXZ
	??0str_stream@@QAE@XZ
	xlsXformatSetBorderColorIdx
	??B?$fpos@H@std@@QBE_JXZ
	?PushText@formula_t@xlslib_core@@QAEDABV?$basic_string@DU?$char_traits@D@std@@V?$allocator@D@2@@std@@@Z
	??0?$allocator@PAVrange@xlslib_core@@@std@@QAE@ABV01@@Z
	??1str_stream@@QAE@XZ
	??0?$_String_val@DV?$allocator@D@std@@@std@@QAE@ABV01@@Z
	?MakeCDimension@CDataStorage@xlslib_core@@QAEPAVCDimension@2@IIII@Z
	?max_size@?$basic_string@_WU?$char_traits@_W@std@@V?$allocator@_W@2@@std@@QBEIXZ
	?max_size@?$vector@PAVCOleProp@xlslib_core@@V?$allocator@PAVCOleProp@xlslib_core@@@std@@@std@@QBEIXZ
	??$?6$$BY0BP@$$CBD@@YAABVstr_stream@@ABV0@AAY0BP@$$CBD@Z
	??$_Umove@PAV?$basic_string@DU?$char_traits@D@std@@V?$allocator@D@2@@std@@@?$vector@V?$basic_string@DU?$char_traits@D@std@@V?$allocator@D@2@@std@@V?$allocator@V?$basic_string@DU?$char_traits@D@std@@V?$allocator@D@2@@std@@@2@@std@@IAEPAV?$basic_string@DU?$char_traits@D@std@@V?$allocator@D@2@@1@PAV21@00@Z
	??1?$basic_string@DU?$char_traits@D@std@@V?$allocator@D@2@@std@@QAE@XZ
	?capacity@?$vector@PAVfont_t@xlslib_core@@V?$allocator@PAVfont_t@xlslib_core@@@std@@@std@@QBEIXZ
	?_Tidy@?$basic_stringbuf@DU?$char_traits@D@std@@V?$allocator@D@2@@std@@IAEXXZ
	?erase@?$vector@PAVrange_t@xlslib_core@@V?$allocator@PAVrange_t@xlslib_core@@@std@@@std@@QAE?AV?$_Vector_iterator@V?$_Vector_val@PAVrange_t@xlslib_core@@V?$allocator@PAVrange_t@xlslib_core@@@std@@@std@@@2@V?$_Vector_const_iterator@V?$_Vector_val@PAVrange_t@xlslib_core@@V?$allocator@PAVrange_t@xlslib_core@@@std@@@std@@@2@0@Z
	?format@cell_t@xlslib_core@@QAEXPAVformat_t@2@@Z
	??$stringtok@V?$list@PAV?$basic_string@DU?$char_traits@D@std@@V?$allocator@D@2@@std@@V?$allocator@PAV?$basic_string@DU?$char_traits@D@std@@V?$allocator@D@2@@std@@@2@@std@@@@YAXAAV?$list@PAV?$basic_string@DU?$char_traits@D@std@@V?$allocator@D@2@@std@@V?$allocator@PAV?$basic_string@DU?$char_traits@D@std@@V?$allocator@D@2@@std@@@2@@std@@ABV?$basic_string@DU?$char_traits@D@std@@V?$allocator@D@2@@1@QBD@Z
	xlslib_report_failed_assertion
	xlslib_register_assert_reporter
	??$construct@AAV?$basic_string@_WU?$char_traits@_W@std@@V?$allocator@_W@2@@std@@@?$allocator@V?$basic_string@_WU?$char_traits@_W@std@@V?$allocator@_W@2@@std@@@std@@QAEXPAV?$basic_string@_WU?$char_traits@_W@std@@V?$allocator@_W@2@@1@AAV21@@Z
	??0?$basic_string@DU?$char_traits@D@std@@V?$allocator@D@2@@std@@QAE@ABV01@@Z
	?deallocate@?$allocator@PAVfont_t@xlslib_core@@@std@@QAEXPAPAVfont_t@xlslib_core@@I@Z
	??0?$basic_string@DU?$char_traits@D@std@@V?$allocator@D@2@@std@@QAE@XZ
	??0CDataStorage@xlslib_core@@QAE@XZ
	?SetIndex@format_t@xlslib_core@@QAEXG@Z
	?reserve@?$vector@PAVboundsheet_t@xlslib_core@@V?$allocator@PAVboundsheet_t@xlslib_core@@@std@@@std@@QAEXI@Z
	xlsCellFormatP
	??0?$basic_string@DU?$char_traits@D@std@@V?$allocator@D@2@@std@@QAE@$$QAV01@@Z
	??$_Ptr_cat@Urowblocksize_t@xlslib_core@@U12@@std@@YA?AU_Nonscalar_ptr_iterator_tag@0@PAUrowblocksize_t@xlslib_core@@0@Z
	?locked@cell_t@xlslib_core@@QAEX_N@Z
	?seekoff@?$basic_stringbuf@DU?$char_traits@D@std@@V?$allocator@D@2@@std@@MAE?AV?$fpos@H@2@_JHH@Z
	xlsXformatGetFormatIndex
	?str@?$basic_stringstream@DU?$char_traits@D@std@@V?$allocator@D@2@@std@@QBE?AV?$basic_string@DU?$char_traits@D@std@@V?$allocator@D@2@@2@XZ
	??$_Allocate@U_Node@?$_Tree_nod@V?$_Tset_traits@U?$pair@PAVxf_t@xlslib_core@@UborderedXft@2@@std@@VxfSorter@xlslib_core@@V?$allocator@U?$pair@PAVxf_t@xlslib_core@@UborderedXft@2@@std@@@2@$0A@@std@@@std@@@std@@YAPAU_Node@?$_Tree_nod@V?$_Tset_traits@U?$pair@PAVxf_t@xlslib_core@@UborderedXft@2@@std@@VxfSorter@xlslib_core@@V?$allocator@U?$pair@PAVxf_t@xlslib_core@@UborderedXft@2@@std@@@2@$0A@@std@@@0@IPAU120@@Z
	??0window1@xlslib_core@@QAE@XZ
	?_Myval@?$_List_val@PAV?$basic_string@DU?$char_traits@D@std@@V?$allocator@D@2@@std@@V?$allocator@PAV?$basic_string@DU?$char_traits@D@std@@V?$allocator@D@2@@std@@@2@@std@@SAAAPAV?$basic_string@DU?$char_traits@D@std@@V?$allocator@D@2@@2@PAU_Node@?$_List_nod@PAV?$basic_string@DU?$char_traits@D@std@@V?$allocator@D@2@@std@@V?$allocator@PAV?$basic_string@DU?$char_traits@D@std@@V?$allocator@D@2@@std@@@2@@2@@Z
	?_Xran@?$basic_string@_WU?$char_traits@_W@std@@V?$allocator@_W@2@@std@@QBEXXZ
	??1?$basic_string@_WU?$char_traits@_W@std@@V?$allocator@_W@2@@std@@QAE@XZ
	?overflow@?$basic_stringbuf@DU?$char_traits@D@std@@V?$allocator@D@2@@std@@MAEHH@Z
	??1text_value_node_t@xlslib_core@@UAE@XZ
	??F?$_Vector_iterator@V?$_Vector_val@PAVCOleProp@xlslib_core@@V?$allocator@PAVCOleProp@xlslib_core@@@std@@@std@@@std@@QAE?AV01@H@Z
	?hex@?$_Iosb@H@std@@2W4_Fmtflags@12@B
	?_Destroy@?$vector@PAVformula_t@xlslib_core@@V?$allocator@PAVformula_t@xlslib_core@@@std@@@std@@IAEXPAPAVformula_t@xlslib_core@@0@Z
	?assign@?$basic_string@DU?$char_traits@D@std@@V?$allocator@D@2@@std@@QAEAAV12@ABV12@II@Z
	??0?$basic_string@GU?$char_traits@G@std@@V?$allocator@G@2@@std@@QAE@ABV01@@Z
	?_Tidy@?$_Tree@V?$_Tset_traits@PAVrowheight_t@xlslib_core@@Vrowheightsort@2@V?$allocator@PAVrowheight_t@xlslib_core@@@std@@$0A@@std@@@std@@IAEXXZ
	??$_Uninitialized_move@PAPAVworksheet@xlslib_core@@PAPAV12@V?$allocator@PAVworksheet@xlslib_core@@@std@@@std@@YAPAPAVworksheet@xlslib_core@@PAPAV12@00AAV?$allocator@PAVworksheet@xlslib_core@@@0@@Z
	?pbackfail@?$basic_stringbuf@DU?$char_traits@D@std@@V?$allocator@D@2@@std@@MAEHH@Z
	??$?6$$BY01$$CBD@@YAABVstr_stream@@ABV0@AAY01$$CBD@Z
	?SetFlags@CExtFormat@xlslib_core@@QAEXE@Z
	xlsCellHidden
	?begin@?$basic_string@GU?$char_traits@G@std@@V?$allocator@G@2@@std@@QBE?AV?$_String_const_iterator@GU?$char_traits@G@std@@V?$allocator@G@2@@2@XZ
	?seekpos@?$basic_stringbuf@DU?$char_traits@D@std@@V?$allocator@D@2@@std@@MAE?AV?$fpos@H@2@V32@H@Z
	?_Tidy@?$basic_string@DU?$char_traits@D@std@@V?$allocator@D@2@@std@@QAEX_NI@Z
	?size@?$_Tree@V?$_Tset_traits@PAVrowheight_t@xlslib_core@@Vrowheightsort@2@V?$allocator@PAVrowheight_t@xlslib_core@@@std@@$0A@@std@@@std@@QBEIXZ
	?IsCell@xf_t@xlslib_core@@QBE_NXZ
	?assign@?$basic_string@DU?$char_traits@D@std@@V?$allocator@D@2@@std@@QAEAAV12@$$QAV12@@Z
	?DumpData@workbook@xlslib_core@@AAEPAVCUnit@2@AAVCDataStorage@2@@Z
	?allocate@?$allocator@D@std@@QAEPADI@Z
	??$?6$$BY0BD@$$CBD@@YAABVstr_stream@@ABV0@AAY0BD@$$CBD@Z
	??0?$basic_stringbuf@DU?$char_traits@D@std@@V?$allocator@D@2@@std@@QAE@H@Z
	?SetColor@CGlobalRecords@xlslib_core@@QAE_NEEEE@Z
	??$_Cons_val@V?$allocator@PAV?$basic_string@DU?$char_traits@D@std@@V?$allocator@D@2@@std@@@std@@PAV?$basic_string@DU?$char_traits@D@std@@V?$allocator@D@2@@2@ABQAV32@@std@@YAXAAV?$allocator@PAV?$basic_string@DU?$char_traits@D@std@@V?$allocator@D@2@@std@@@0@PAPAV?$basic_string@DU?$char_traits@D@std@@V?$allocator@D@2@@0@ABQAV20@@Z
	wmemcpy
	??$forward@AAPAVCUnit@xlslib_core@@@std@@YAAAPAVCUnit@xlslib_core@@AAPAV12@@Z
	??E?$_Vector_iterator@V?$_Vector_val@PAUHyperLink@xlslib_core@@V?$allocator@PAUHyperLink@xlslib_core@@@std@@@std@@@std@@QAE?AV01@H@Z
	xlsCellFillfgcolor
	??0text_value_node_t@xlslib_core@@QAE@AAVCGlobalRecords@1@ABV?$basic_string@GU?$char_traits@G@std@@V?$allocator@G@2@@std@@@Z
	?max_size@?$allocator@G@std@@QBEIXZ
	?WriteSigned16@CBinFile@xlslib_core@@QAEHF@Z
	?str@?$basic_stringbuf@DU?$char_traits@D@std@@V?$allocator@D@2@@std@@QBE?AV?$basic_string@DU?$char_traits@D@std@@V?$allocator@D@2@@2@XZ
	?assign@?$basic_string@DU?$char_traits@D@std@@V?$allocator@D@2@@std@@QAEAAV12@PBDI@Z
	?_Eos@?$basic_string@DU?$char_traits@D@std@@V?$allocator@D@2@@std@@QAEXI@Z
	??0terminal_node_t@xlslib_core@@QAE@AAVCGlobalRecords@1@@Z
	xlsFontSetUnderlineStyle
	??E?$_Vector_const_iterator@V?$_Vector_val@VCUnitStore@xlslib_core@@V?$allocator@VCUnitStore@xlslib_core@@@std@@@std@@@std@@QAEAAV01@XZ
	?erase@?$basic_string@DU?$char_traits@D@std@@V?$allocator@D@2@@std@@QAEAAV12@II@Z
	??$?6$$BY02$$CBD@@YAABVstr_stream@@ABV0@AAY02$$CBD@Z
	??0boundsheet_t@xlslib_core@@AAE@ABV01@@Z
	?_Grow@?$basic_string@DU?$char_traits@D@std@@V?$allocator@D@2@@std@@QAE_NI_N@Z
	??0?$basic_string@DU?$char_traits@D@std@@V?$allocator@D@2@@std@@QAE@ABV01@IIABV?$allocator@D@1@@Z
	?max_size@?$basic_string@DU?$char_traits@D@std@@V?$allocator@D@2@@std@@QBEIXZ
	?_Init@?$basic_stringbuf@DU?$char_traits@D@std@@V?$allocator@D@2@@std@@IAEXPBDIH@Z
	?_Xlen@?$basic_string@GU?$char_traits@G@std@@V?$allocator@G@2@@std@@QBEXXZ
	?_Insert@?$_Tree@V?$_Tset_traits@PAVrowheight_t@xlslib_core@@Vrowheightsort@2@V?$allocator@PAVrowheight_t@xlslib_core@@@std@@$0A@@std@@@std@@IAE?AV?$_Tree_const_iterator@V?$_Tree_val@V?$_Tset_traits@PAVrowheight_t@xlslib_core@@Vrowheightsort@2@V?$allocator@PAVrowheight_t@xlslib_core@@@std@@$0A@@std@@@std@@@2@_NPAU_Node@?$_Tree_nod@V?$_Tset_traits@PAVrowheight_t@xlslib_core@@Vrowheightsort@2@V?$allocator@PAVrowheight_t@xlslib_core@@@std@@$0A@@std@@@2@1@Z
	?allocate@?$allocator@V?$basic_string@_WU?$char_traits@_W@std@@V?$allocator@_W@2@@std@@@std@@QAEPAV?$basic_string@_WU?$char_traits@_W@std@@V?$allocator@_W@2@@2@I@Z
	?pbackfail@?$basic_filebuf@DU?$char_traits@D@std@@@std@@MAEHH@Z
	xlsXformatSetLocked
	??D?$_Vector_iterator@V?$_Vector_val@PAVformat_t@xlslib_core@@V?$allocator@PAVformat_t@xlslib_core@@@std@@@std@@@std@@QBEAAPAVformat_t@xlslib_core@@XZ
	?c_str@?$basic_string@DU?$char_traits@D@std@@V?$allocator@D@2@@std@@QBEPBDXZ
	??$_Umove@PAV?$basic_string@_WU?$char_traits@_W@std@@V?$allocator@_W@2@@std@@@?$vector@V?$basic_string@_WU?$char_traits@_W@std@@V?$allocator@_W@2@@std@@V?$allocator@V?$basic_string@_WU?$char_traits@_W@std@@V?$allocator@_W@2@@std@@@2@@std@@IAEPAV?$basic_string@_WU?$char_traits@_W@std@@V?$allocator@_W@2@@1@PAV21@00@Z
	xlsCellFontshadow
	??$construct@AAPAVworksheet@xlslib_core@@@?$allocator@PAVworksheet@xlslib_core@@@std@@QAEXPAPAVworksheet@xlslib_core@@AAPAV23@@Z
	?MakeCEof@CDataStorage@xlslib_core@@QAEPAVCEof@2@XZ
	?_Xran@?$basic_string@DU?$char_traits@D@std@@V?$allocator@D@2@@std@@QBEXXZ
	?_Xran@?$basic_string@GU?$char_traits@G@std@@V?$allocator@G@2@@std@@QBEXXZ
	xlsXformatSetTxtOrientation
	?_Getstate@?$basic_stringbuf@DU?$char_traits@D@std@@V?$allocator@D@2@@std@@AAEHH@Z
	??4?$basic_string@DU?$char_traits@D@std@@V?$allocator@D@2@@std@@QAEAAV01@ABV01@@Z
	?_Copy@?$basic_string@DU?$char_traits@D@std@@V?$allocator@D@2@@std@@QAEXII@Z
	?_Inside@?$basic_string@DU?$char_traits@D@std@@V?$allocator@D@2@@std@@QAE_NPBD@Z
	?construct@?$allocator@V?$basic_string@_WU?$char_traits@_W@std@@V?$allocator@_W@2@@std@@@std@@QAEXPAV?$basic_string@_WU?$char_traits@_W@std@@V?$allocator@_W@2@@2@ABV32@@Z
	??F?$_Vector_iterator@V?$_Vector_val@PAVCUnit@xlslib_core@@V?$allocator@PAVCUnit@xlslib_core@@@std@@@std@@@std@@QAE?AV01@H@Z
	?_Xlen@?$basic_string@DU?$char_traits@D@std@@V?$allocator@D@2@@std@@QBEXXZ
	?_Xlen@?$basic_string@_WU?$char_traits@_W@std@@V?$allocator@_W@2@@std@@QBEXXZ
	??$?6PBD@@YAABVstr_stream@@ABV0@ABQBD@Z
	?RequestIndex@CDataStorage@xlslib_core@@QAEHI@Z
	?_Xlen@?$vector@PAVrange_t@xlslib_core@@V?$allocator@PAVrange_t@xlslib_core@@@std@@@std@@IBEXXZ
	?size@?$vector@NV?$allocator@N@std@@@std@@QBEIXZ
	??$write_to_stream@$$BY01$$CBD@Private@@YAABVstr_stream@@ABV1@AAY01$$CBD@Z
	?op@expression_node_factory_t@xlslib_core@@QAEPAVunary_op_node_t@2@W4expr_operator_code_t@2@PAVexpression_node_t@2@@Z
	??$write_to_stream@$$BY0BP@$$CBD@Private@@YAABVstr_stream@@ABV1@AAY0BP@$$CBD@Z
	?SetXFParent@CExtFormat@xlslib_core@@QAEXG@Z
	xlsCellFontcolor
	xlsFontGetAttributes
	??$_Unchecked@PAPAVCOleProp@xlslib_core@@@std@@YAPAPAVCOleProp@xlslib_core@@PAPAV12@@Z
	??1xf_t@xlslib_core@@EAE@XZ
	??4?$basic_string@GU?$char_traits@G@std@@V?$allocator@G@2@@std@@QAEAAV01@PBG@Z
	?construct@?$allocator@PAVCUnit@xlslib_core@@@std@@QAEXPAPAVCUnit@xlslib_core@@ABQAV34@@Z
	?Is_In_1904_Mode@CDateMode@xlslib_core@@SA_NXZ
	??$?9DD@std@@YA_NABV?$allocator@D@0@0@Z
	??$?9_W_W@std@@YA_NABV?$allocator@_W@0@0@Z
	??$_Allocate@D@std@@YAPADIPAD@Z
	?DumpData@cellarea_deref_node_t@xlslib_core@@UBEDAAVformula_t@2@_N@Z
	?reserve@?$vector@VCUnitStore@xlslib_core@@V?$allocator@VCUnitStore@xlslib_core@@@std@@@std@@QAEXI@Z
	?_Lrotate@?$_Tree@V?$_Tset_traits@PAVcell_t@xlslib_core@@Vinsertsort@2@V?$allocator@PAVcell_t@xlslib_core@@@std@@$0A@@std@@@std@@IAEXPAU_Node@?$_Tree_nod@V?$_Tset_traits@PAVcell_t@xlslib_core@@Vinsertsort@2@V?$allocator@PAVcell_t@xlslib_core@@@std@@$0A@@std@@@2@@Z
	xlsWorkBookTabBarWidth
	??$?0AAPAVxf_t@xlslib_core@@AAUborderedXft@1@@?$_Pair_base@PAVxf_t@xlslib_core@@UborderedXft@2@@std@@QAE@AAPAVxf_t@xlslib_core@@AAUborderedXft@3@@Z
	??0bad_alloc@std@@QAE@ABV01@@Z
	?_Make_iter@?$list@PAV?$basic_string@DU?$char_traits@D@std@@V?$allocator@D@2@@std@@V?$allocator@PAV?$basic_string@DU?$char_traits@D@std@@V?$allocator@D@2@@std@@@2@@std@@QBE?AV?$_List_iterator@V?$_List_val@PAV?$basic_string@DU?$char_traits@D@std@@V?$allocator@D@2@@std@@V?$allocator@PAV?$basic_string@DU?$char_traits@D@std@@V?$allocator@D@2@@std@@@2@@std@@@2@V?$_List_const_iterator@V?$_List_val@PAV?$basic_string@DU?$char_traits@D@std@@V?$allocator@D@2@@std@@V?$allocator@PAV?$basic_string@DU?$char_traits@D@std@@V?$allocator@D@2@@std@@@2@@std@@@2@@Z
	?_Inside@?$basic_string@_WU?$char_traits@_W@std@@V?$allocator@_W@2@@std@@QAE_NPB_W@Z
	?length@?$char_traits@D@std@@SAIPBD@Z
	??$?6$$BY09$$CBD@@YAABVstr_stream@@ABV0@AAY09$$CBD@Z
	??0formula_cell_t@xlslib_core@@QAE@AAVCGlobalRecords@1@IIPAVformula_t@1@PAVxf_t@1@@Z
	??E?$_Vector_iterator@V?$_Vector_val@PAUHyperLink@xlslib_core@@V?$allocator@PAUHyperLink@xlslib_core@@@std@@@std@@@std@@QAEAAV01@XZ
	??$write_to_stream@$$BY09$$CBD@Private@@YAABVstr_stream@@ABV1@AAY09$$CBD@Z
	?windPosition@workbook@xlslib_core@@QAEXGG@Z
	?uflow@?$basic_filebuf@DU?$char_traits@D@std@@@std@@MAEHXZ
	xlsWorkBookFirstTab
	??$?8_W_W@std@@YA_NABV?$allocator@_W@0@0@Z
	??$write_to_stream@H@Private@@YAABVstr_stream@@ABV1@ABH@Z
	??$?6H@@YAABVstr_stream@@ABV0@ABH@Z
	??$_Val_type@PAPAVCUnit@xlslib_core@@@std@@YAPAPAVCUnit@xlslib_core@@PAPAV12@@Z
	??D?$_Vector_const_iterator@V?$_Vector_val@PAVrange_t@xlslib_core@@V?$allocator@PAVrange_t@xlslib_core@@@std@@@std@@@std@@QBEABQAVrange_t@xlslib_core@@XZ
	??E?$_Tree_const_iterator@V?$_Tree_val@V?$_Tset_traits@PAVHPSFitem@xlslib_core@@Vinsertsort2@2@V?$allocator@PAVHPSFitem@xlslib_core@@@std@@$0A@@std@@@std@@@std@@QAE?AV01@H@Z
	??0?$allocator@I@std@@QAE@ABV01@@Z
	?lower_bound@?$_Tree@V?$_Tset_traits@U?$pair@PAVxf_t@xlslib_core@@UborderedXft@2@@std@@VxfSorter@xlslib_core@@V?$allocator@U?$pair@PAVxf_t@xlslib_core@@UborderedXft@2@@std@@@2@$0A@@std@@@std@@QAE?AV?$_Tree_const_iterator@V?$_Tree_val@V?$_Tset_traits@U?$pair@PAVxf_t@xlslib_core@@UborderedXft@2@@std@@VxfSorter@xlslib_core@@V?$allocator@U?$pair@PAVxf_t@xlslib_core@@UborderedXft@2@@std@@@2@$0A@@std@@@std@@@2@ABU?$pair@PAVxf_t@xlslib_core@@UborderedXft@2@@2@@Z
	xlsXformatGetIndent
	??$write_to_stream@$$BY02$$CBD@Private@@YAABVstr_stream@@ABV1@AAY02$$CBD@Z
	??$_Move@AAPAVCOleProp@xlslib_core@@@std@@YA$$QAPAVCOleProp@xlslib_core@@AAPAV12@@Z
	??$write_to_stream@$$BY04$$CBD@Private@@YAABVstr_stream@@ABV1@AAY04$$CBD@Z
	?assign@?$basic_string@_WU?$char_traits@_W@std@@V?$allocator@_W@2@@std@@QAEAAV12@PB_WI@Z
	?borderstyle@cell_t@xlslib_core@@QAEXW4border_side_t@2@W4border_style_t@2@@Z
	??$?6$$BY04$$CBD@@YAABVstr_stream@@ABV0@AAY04$$CBD@Z
	??$forward@UborderedXft@xlslib_core@@@std@@YA$$QAUborderedXft@xlslib_core@@AAU12@@Z
	?fontbold@cell_t@xlslib_core@@QAEXW4boldness_option_t@2@@Z
	??$?8DD@std@@YA_NABV?$allocator@D@0@0@Z
	??E?$_Vector_iterator@V?$_Vector_val@PAVfont_t@xlslib_core@@V?$allocator@PAVfont_t@xlslib_core@@@std@@@std@@@std@@QAE?AV01@H@Z
	??$_Uninit_move@PAV?$basic_string@_WU?$char_traits@_W@std@@V?$allocator@_W@2@@std@@PAV12@V?$allocator@V?$basic_string@_WU?$char_traits@_W@std@@V?$allocator@_W@2@@std@@@2@V12@@std@@YAPAV?$basic_string@_WU?$char_traits@_W@std@@V?$allocator@_W@2@@0@PAV10@00AAV?$allocator@V?$basic_string@_WU?$char_traits@_W@std@@V?$allocator@_W@2@@std@@@0@0U_Nonscalar_ptr_iterator_tag@0@@Z
	??$forward@I@std@@YA$$QAIAAI@Z
	??F?$_Vector_const_iterator@V?$_Vector_val@PAVCOleProp@xlslib_core@@V?$allocator@PAVCOleProp@xlslib_core@@@std@@@std@@@std@@QAEAAV01@XZ
	?GetRow@cell_t@xlslib_core@@QBEIXZ
	??0?$basic_string@_WU?$char_traits@_W@std@@V?$allocator@_W@2@@std@@QAE@ABV01@@Z
	??F?$_Vector_iterator@V?$_Vector_val@PAVxf_t@xlslib_core@@V?$allocator@PAVxf_t@xlslib_core@@@std@@@std@@@std@@QAE?AV01@H@Z
	xlsCellGetRow
	?GetSize@blank_t@xlslib_core@@UBEIXZ
	?Push@CDataStorage@xlslib_core@@QAEXPAVCUnit@2@@Z
	?_Tidy@?$basic_string@_WU?$char_traits@_W@std@@V?$allocator@_W@2@@std@@QAEX_NI@Z
	??0blank_t@xlslib_core@@AAE@AAVCGlobalRecords@1@IIPAVxf_t@1@@Z
	?fontoutline@range@xlslib_core@@UAEX_N@Z
	??$?0AAPAPAVCOleProp@xlslib_core@@AAPAPAV01@@?$_Pair_base@PAPAVCOleProp@xlslib_core@@PAPAV12@@std@@QAE@AAPAPAVCOleProp@xlslib_core@@0@Z
	?MakeCHPSFdoc@CDataStorage@xlslib_core@@QAEPAVCHPSFdoc@2@ABVhpsf_doc_t@2@@Z
	??$_Cons_val@V?$allocator@PAUDataValidation@xlslib_core@@@std@@PAUDataValidation@xlslib_core@@AAPAU34@@std@@YAXAAV?$allocator@PAUDataValidation@xlslib_core@@@0@PAPAUDataValidation@xlslib_core@@AAPAU23@@Z
	??8?$_List_const_iterator@V?$_List_val@PAV?$basic_string@DU?$char_traits@D@std@@V?$allocator@D@2@@std@@V?$allocator@PAV?$basic_string@DU?$char_traits@D@std@@V?$allocator@D@2@@std@@@2@@std@@@std@@QBE_NABV01@@Z
	xlsRangeCellcolor
	?GetData@blank_t@xlslib_core@@UBEPAVCUnit@2@AAVCDataStorage@2@@Z
	??$_Cons_val@V?$allocator@PAVrange_t@xlslib_core@@@std@@PAVrange_t@xlslib_core@@AAPAV34@@std@@YAXAAV?$allocator@PAVrange_t@xlslib_core@@@0@PAPAVrange_t@xlslib_core@@AAPAV23@@Z
	??0CBlank@xlslib_core@@IAE@AAVCDataStorage@1@ABVblank_t@1@@Z
	?GetResultEstimate@operator_basenode_t@xlslib_core@@UBEXAAVestimated_formula_result_t@2@@Z
	??1CGlobalRecords@xlslib_core@@UAE@XZ
	?GetBoolean@boolean_t@xlslib_core@@QBE_NXZ
	?GetData@boolean_t@xlslib_core@@UBEPAVCUnit@2@AAVCDataStorage@2@@Z
	?max_size@?$vector@VCUnitStore@xlslib_core@@V?$allocator@VCUnitStore@xlslib_core@@@std@@@std@@QBEIXZ
	?_Left@?$_Tree_val@V?$_Tset_traits@PAVrowheight_t@xlslib_core@@Vrowheightsort@2@V?$allocator@PAVrowheight_t@xlslib_core@@@std@@$0A@@std@@@std@@SAAAPAU_Node@?$_Tree_nod@V?$_Tset_traits@PAVrowheight_t@xlslib_core@@Vrowheightsort@2@V?$allocator@PAVrowheight_t@xlslib_core@@@std@@$0A@@std@@@2@PAU342@@Z
	xlsFormulaPushTextArray
	??0CBoolean@xlslib_core@@IAE@AAVCDataStorage@1@ABVboolean_t@1@@Z
	?_Reserve@?$vector@VCUnitStore@xlslib_core@@V?$allocator@VCUnitStore@xlslib_core@@@std@@@std@@IAEXI@Z
	?length@?$char_traits@_W@std@@SAIPB_W@Z
	?SetFormat@xf_t@xlslib_core@@QAEXPAVformat_t@2@@Z
	?fillstyle@cell_t@xlslib_core@@QAEXW4fill_option_t@2@@Z
	wmemmove
	?GetSize@CUnit@xlslib_core@@QBEIXZ
	?_Orphan_range@?$vector@PAVformula_t@xlslib_core@@V?$allocator@PAVformula_t@xlslib_core@@@std@@@std@@IBEXPAPAVformula_t@xlslib_core@@0@Z
	xlsCellFontstrikeout
	??$move@AA_N@std@@YA$$QA_NAA_N@Z
	?move@?$char_traits@G@std@@SAPAGPAGPBGI@Z
	?reserve@?$vector@PBVlabel_t@xlslib_core@@V?$allocator@PBVlabel_t@xlslib_core@@@std@@@std@@QAEXI@Z
	?fontshadow@cell_t@xlslib_core@@QAEX_N@Z
	?FindCell@worksheet@xlslib_core@@QBEPAVcell_t@2@II@Z
	?goodbit@?$_Iosb@H@std@@2W4_Iostate@12@B
	?move@?$char_traits@_W@std@@SAPA_WPA_WPB_WI@Z
	?assign@?$char_traits@_W@std@@SAPA_WPA_WI_W@Z
	??$_Uninit_move@PAVformula_t@xlslib_core@@PAV12@PAV12@@std@@YAPAPAVformula_t@xlslib_core@@PAPAV12@00AAV?$allocator@PAVformula_t@xlslib_core@@@0@0U_Scalar_ptr_iterator_tag@0@@Z
	?reserve@?$vector@IV?$allocator@I@std@@@std@@QAEXI@Z
	?size@?$vector@PAVxf_t@xlslib_core@@V?$allocator@PAVxf_t@xlslib_core@@@std@@@std@@QBEIXZ
	wmemset
	??H?$_Vector_iterator@V?$_Vector_val@VCUnitStore@xlslib_core@@V?$allocator@VCUnitStore@xlslib_core@@@std@@@std@@@std@@QBE?AV01@H@Z
	??$_Uninitialized_move@PAPAVboundsheet_t@xlslib_core@@PAPAV12@V?$allocator@PAVboundsheet_t@xlslib_core@@@std@@@std@@YAPAPAVboundsheet_t@xlslib_core@@PAPAV12@00AAV?$allocator@PAVboundsheet_t@xlslib_core@@@0@@Z
	??D?$_Vector_iterator@V?$_Vector_val@PAVformula_t@xlslib_core@@V?$allocator@PAVformula_t@xlslib_core@@@std@@@std@@@std@@QBEAAPAVformula_t@xlslib_core@@XZ
	?assign@?$char_traits@G@std@@SAPAGPAGIG@Z
	?GetData@note_t@xlslib_core@@UBEPAVCUnit@2@AAVCDataStorage@2@@Z
	?assign@?$char_traits@D@std@@SAPADPADID@Z
	xlsWorksheetValidateCellArea
	??0range_t@xlslib_core@@QAE@XZ
	??1range_t@xlslib_core@@UAE@XZ
	?IsVBModule@boundsheet_t@xlslib_core@@QBE_NXZ
	?assign@?$basic_string@_WU?$char_traits@_W@std@@V?$allocator@_W@2@@std@@QAEAAV12@PB_W@Z
	??G?$_String_const_iterator@DU?$char_traits@D@std@@V?$allocator@D@2@@std@@QBEHABV01@@Z
	xlsNewWorkbook
	?_Grow@?$basic_string@GU?$char_traits@G@std@@V?$allocator@G@2@@std@@QAE_NI_N@Z
	?set_cell_font@cell_t@xlslib_core@@AAEXXZ
	?allocate@?$allocator@PBVlabel_t@xlslib_core@@@std@@QAEPAPBVlabel_t@xlslib_core@@I@Z
	?max_size@?$vector@V?$basic_string@_WU?$char_traits@_W@std@@V?$allocator@_W@2@@std@@V?$allocator@V?$basic_string@_WU?$char_traits@_W@std@@V?$allocator@_W@2@@std@@@2@@std@@QBEIXZ
	xlsDeleteWorkbook
	?_Lrotate@?$_Tree@V?$_Tset_traits@PAUcolinfo_t@xlslib_core@@Vcolinfosort@2@V?$allocator@PAUcolinfo_t@xlslib_core@@@std@@$0A@@std@@@std@@IAEXPAU_Node@?$_Tree_nod@V?$_Tset_traits@PAUcolinfo_t@xlslib_core@@Vcolinfosort@2@V?$allocator@PAUcolinfo_t@xlslib_core@@@std@@$0A@@std@@@2@@Z
	xlsWorkbookSheet
	?begin@?$vector@PAUHyperLink@xlslib_core@@V?$allocator@PAUHyperLink@xlslib_core@@@std@@@std@@QAE?AV?$_Vector_iterator@V?$_Vector_val@PAUHyperLink@xlslib_core@@V?$allocator@PAUHyperLink@xlslib_core@@@std@@@std@@@2@XZ
	xlsWorkbookSheetW
	?reserve@?$vector@PAVxf_t@xlslib_core@@V?$allocator@PAVxf_t@xlslib_core@@@std@@@std@@QAEXI@Z
	xlsWorkbookGetSheet
	?GetSheet@workbook@xlslib_core@@QAEPAVworksheet@2@G@Z
	??1CDataStorage@xlslib_core@@UAE@XZ
	xlsWorkbookFont
	xlsWorkbookFormat
	xlsWorkbookFormatW
	??0font_t@xlslib_core@@AAE@AAVCGlobalRecords@1@@Z
	xlsWorkbookxFormat
	??1CIndex@xlslib_core@@EAE@XZ
	xlsWorksheetLabelW
	xlsWorkbookxFormatFont
	?_Tidy@?$basic_string@GU?$char_traits@G@std@@V?$allocator@G@2@@std@@QAEX_NI@Z
	??0?$allocator@V?$basic_string@_WU?$char_traits@_W@std@@V?$allocator@_W@2@@std@@@std@@QAE@XZ
	??1CFormula@xlslib_core@@EAE@XZ
	xlsWorkbookProperty
	xlsWorkBookWindPosition
	xlsWorksheetError
	?MakeCStyle@CDataStorage@xlslib_core@@QAEPAVCStyle@2@PBUstyle_t@2@@Z
	xlsWorkbookDump
	??$_Dest_val@V?$allocator@VCUnitStore@xlslib_core@@@std@@VCUnitStore@xlslib_core@@@std@@YAXAAV?$allocator@VCUnitStore@xlslib_core@@@0@PAVCUnitStore@xlslib_core@@@Z
	??F?$_Vector_iterator@V?$_Vector_val@PAVfont_t@xlslib_core@@V?$allocator@PAVfont_t@xlslib_core@@@std@@@std@@@std@@QAEAAV01@XZ
	?SetLocked@xf_t@xlslib_core@@QAEX_N@Z
	?max_size@?$vector@PBVlabel_t@xlslib_core@@V?$allocator@PBVlabel_t@xlslib_core@@@std@@@std@@QBEIXZ
	??0?$set@PAUcolinfo_t@xlslib_core@@Vcolinfosort@2@V?$allocator@PAUcolinfo_t@xlslib_core@@@std@@@std@@QAE@XZ
	??1HPSFitem@xlslib_core@@QAE@XZ
	xlsWorksheetFindCell
	xlsWorksheetFormula
	?SetTxtOrientation@xf_t@xlslib_core@@QAEXW4txtori_option_t@2@@Z
	??0?$_String_const_iterator@_WU?$char_traits@_W@std@@V?$allocator@_W@2@@std@@QAE@PB_WPBU_Container_base0@1@@Z
	xlsFontGetColorIdx
	?construct@?$allocator@PAVxf_t@xlslib_core@@@std@@QAEXPAPAVxf_t@xlslib_core@@ABQAV34@@Z
	?deallocate@?$allocator@I@std@@QAEXPAII@Z
	xlsWorksheetBoolean
	xlsWorksheetMerge
	?MakeCExternBook@CDataStorage@xlslib_core@@QAEPAVCUnit@2@G@Z
	??0DataValidation@xlslib_core@@QAE@XZ
	?capacity@?$vector@V?$basic_string@DU?$char_traits@D@std@@V?$allocator@D@2@@std@@V?$allocator@V?$basic_string@DU?$char_traits@D@std@@V?$allocator@D@2@@std@@@2@@std@@QBEIXZ
	?construct@?$allocator@I@std@@QAEXPAIABI@Z
	xlsWorksheetColwidth
	xlsWorksheetRowheight
	?AddValue16@CUnit@xlslib_core@@QAEDG@Z
	?_Noreplace@?$_Iosb@H@std@@2W4_Openmode@12@B
	xlsWorksheetRangegroup
	??$?0PAVcell_t@xlslib_core@@@?$allocator@U_Node@?$_Tree_nod@V?$_Tset_traits@PAVcell_t@xlslib_core@@Vinsertsort@2@V?$allocator@PAVcell_t@xlslib_core@@@std@@$0A@@std@@@std@@@std@@QAE@ABV?$allocator@PAVcell_t@xlslib_core@@@1@@Z
	??$_Allocate@V?$basic_string@DU?$char_traits@D@std@@V?$allocator@D@2@@std@@@std@@YAPAV?$basic_string@DU?$char_traits@D@std@@V?$allocator@D@2@@0@IPAV10@@Z
	xlsWorksheetBlank
	xlsWorksheetNumberDbl
	xlsWorksheetNumberInt
	?IsASCII@CGlobalRecords@xlslib_core@@SA_NABV?$basic_string@GU?$char_traits@G@std@@V?$allocator@G@2@@std@@@Z
	?max_size@?$allocator@_W@std@@QBEIXZ
	xlsWorksheetNote
	?capacity@?$vector@PAVxf_t@xlslib_core@@V?$allocator@PAVxf_t@xlslib_core@@@std@@@std@@QBEIXZ
	xlsWorksheetNoteW
	??$_Val_type@PAPAUDataValidation@xlslib_core@@@std@@YAPAPAUDataValidation@xlslib_core@@PAPAU12@@Z
	??YCUnit@xlslib_core@@QAEAAV01@ABV01@@Z
	xlsFormulaPushBoolean
	??1formula_cell_t@xlslib_core@@UAE@XZ
	?DumpData@formula_cell_t@xlslib_core@@QBEXAAVCUnit@2@@Z
	?unix2mstime@hpsf_doc_t@xlslib_core@@QAE_K_J@Z
	xlsFormulaPushCharacterArrayW
	xlsFormulaPushMissingArgument
	?PushMissingArgument@formula_t@xlslib_core@@QAEDXZ
	?allocate@?$allocator@U_Node@?$_Tree_nod@V?$_Tset_traits@PAUcolinfo_t@xlslib_core@@Vcolinfosort@2@V?$allocator@PAUcolinfo_t@xlslib_core@@@std@@$0A@@std@@@std@@@std@@QAEPAU_Node@?$_Tree_nod@V?$_Tset_traits@PAUcolinfo_t@xlslib_core@@Vcolinfosort@2@V?$allocator@PAUcolinfo_t@xlslib_core@@@std@@$0A@@std@@@2@I@Z
	?max_size@?$vector@V?$basic_string@DU?$char_traits@D@std@@V?$allocator@D@2@@std@@V?$allocator@V?$basic_string@DU?$char_traits@D@std@@V?$allocator@D@2@@std@@@2@@std@@QBEIXZ
	xlsFormulaPushError
	??4format_t@xlslib_core@@AAEAAV01@ABV01@@Z
	?reserve@?$vector@PAUDataValidation@xlslib_core@@V?$allocator@PAUDataValidation@xlslib_core@@@std@@@std@@QAEXI@Z
	??0?$_String_iterator@DU?$char_traits@D@std@@V?$allocator@D@2@@std@@QAE@PADPBU_Container_base0@1@@Z
	xlsFontSetOutline
	xlsFormulaPushNumberInt
	xlsWorksheetValidateCellAreaW
	xlsFormulaPushNumberDbl
	??$_Cons_val@V?$allocator@PAVCUnit@xlslib_core@@@std@@PAVCUnit@xlslib_core@@ABQAV34@@std@@YAXAAV?$allocator@PAVCUnit@xlslib_core@@@0@PAPAVCUnit@xlslib_core@@ABQAV23@@Z
	xlsXformatGetFontIndex
	??$_Uninit_move@PAV?$basic_string@DU?$char_traits@D@std@@V?$allocator@D@2@@std@@PAV12@V?$allocator@V?$basic_string@DU?$char_traits@D@std@@V?$allocator@D@2@@std@@@2@V12@@std@@YAPAV?$basic_string@DU?$char_traits@D@std@@V?$allocator@D@2@@0@PAV10@00AAV?$allocator@V?$basic_string@DU?$char_traits@D@std@@V?$allocator@D@2@@std@@@0@0U_Nonscalar_ptr_iterator_tag@0@@Z
	??E?$_Tree_unchecked_const_iterator@V?$_Tree_val@V?$_Tset_traits@PAVHPSFitem@xlslib_core@@Vinsertsort2@2@V?$allocator@PAVHPSFitem@xlslib_core@@@std@@$0A@@std@@@std@@U_Iterator_base0@2@@std@@QAEAAV01@XZ
	??$_Rotate@PAVCUnitStore@xlslib_core@@HV12@@std@@YAXPAVCUnitStore@xlslib_core@@00PAH0@Z
	?max_size@?$_Tree@V?$_Tset_traits@PAVcell_t@xlslib_core@@Vinsertsort@2@V?$allocator@PAVcell_t@xlslib_core@@@std@@$0A@@std@@@std@@QBEIXZ
	?push_back@?$vector@PAVrange@xlslib_core@@V?$allocator@PAVrange@xlslib_core@@@std@@@std@@QAEXABQAVrange@xlslib_core@@@Z
	xlsFormulaPushNumberArray
	??$_Cons_val@V?$allocator@V?$basic_string@DU?$char_traits@D@std@@V?$allocator@D@2@@std@@@std@@V?$basic_string@DU?$char_traits@D@std@@V?$allocator@D@2@@2@AAV32@@std@@YAXAAV?$allocator@V?$basic_string@DU?$char_traits@D@std@@V?$allocator@D@2@@std@@@0@PAV?$basic_string@DU?$char_traits@D@std@@V?$allocator@D@2@@0@AAV20@@Z
	??1?$basic_filebuf@DU?$char_traits@D@std@@@std@@UAE@XZ
	?GetNumberOfChilds@expression_node_t@xlslib_core@@UBEGXZ
	?PushOperator@formula_t@xlslib_core@@QAEDW4expr_operator_code_t@2@@Z
	?reserve@?$vector@PAVCUnit@xlslib_core@@V?$allocator@PAVCUnit@xlslib_core@@@std@@@std@@QAEXI@Z
	?SetIndent@CExtFormat@xlslib_core@@QAEXE@Z
	xlsFormulaPushOperator
	??E?$_Vector_iterator@V?$_Vector_val@VCUnitStore@xlslib_core@@V?$allocator@VCUnitStore@xlslib_core@@@std@@@std@@@std@@QAE?AV01@H@Z
	xlsXformatSetIndent
	xlsFormulaPushCellReference
	??$addressof@QAUDataValidation@xlslib_core@@@std@@YAPBQAUDataValidation@xlslib_core@@ABQAU12@@Z
	xlsFormulaPushCellAreaReference
	??Y?$_Vector_iterator@V?$_Vector_val@PAVCUnit@xlslib_core@@V?$allocator@PAVCUnit@xlslib_core@@@std@@@std@@@std@@QAEAAV01@H@Z
	?_Buynode@?$_Tree_val@V?$_Tset_traits@PAVcell_t@xlslib_core@@Vinsertsort@2@V?$allocator@PAVcell_t@xlslib_core@@@std@@$0A@@std@@@std@@QAEPAU_Node@?$_Tree_nod@V?$_Tset_traits@PAVcell_t@xlslib_core@@Vinsertsort@2@V?$allocator@PAVcell_t@xlslib_core@@@std@@$0A@@std@@@2@XZ
	xlsFormulaPushFunction
	?reserve@?$vector@PAVrange@xlslib_core@@V?$allocator@PAVrange@xlslib_core@@@std@@@std@@QAEXI@Z
	??$forward@AAPAVboundsheet_t@xlslib_core@@@std@@YAAAPAVboundsheet_t@xlslib_core@@AAPAV12@@Z
	xlsFormulaPushFunctionV
	?GetBuffer@CUnitStore@xlslib_core@@QAEPAEXZ
	?end@CDataStorage@xlslib_core@@QAE?AV?$_Vector_iterator@V?$_Vector_val@VCUnitStore@xlslib_core@@V?$allocator@VCUnitStore@xlslib_core@@@std@@@std@@@std@@XZ
	xlsFormulaPushCharacterArray
	??0CContinue@xlslib_core@@IAE@PAVCUnit@1@PBEI@Z
	xlsFormulaPushText
	??0?$allocator@PAUDataValidation@xlslib_core@@@std@@QAE@XZ
	xlsFormulaPushTextW
	??E?$_Tree_const_iterator@V?$_Tree_val@V?$_Tset_traits@PAUcolinfo_t@xlslib_core@@Vcolinfosort@2@V?$allocator@PAUcolinfo_t@xlslib_core@@@std@@$0A@@std@@@std@@@std@@QAE?AV01@H@Z
	?destroy@?$allocator@PAVxf_t@xlslib_core@@@std@@QAEXPAPAVxf_t@xlslib_core@@@Z
	xlsFormulaPushTextArrayW
	?destroy@?$allocator@V?$basic_string@_WU?$char_traits@_W@std@@V?$allocator@_W@2@@std@@@std@@QAEXPAV?$basic_string@_WU?$char_traits@_W@std@@V?$allocator@_W@2@@2@@Z
	xlsWorksheetFormulaCell
	??0?$_Tree_nod@V?$_Tset_traits@U?$pair@PAVxf_t@xlslib_core@@UborderedXft@2@@std@@VxfSorter@xlslib_core@@V?$allocator@U?$pair@PAVxf_t@xlslib_core@@UborderedXft@2@@std@@@2@$0A@@std@@@std@@QAE@ABVxfSorter@xlslib_core@@V?$allocator@U?$pair@PAVxf_t@xlslib_core@@UborderedXft@2@@std@@@1@@Z
	?xfDup@xf_t@xlslib_core@@SAPAV12@PBV12@@Z
	?MakeCMergedCells@CDataStorage@xlslib_core@@QAEPAVCMergedCells@2@XZ
	?_Make_iter@?$vector@PAVrange_t@xlslib_core@@V?$allocator@PAVrange_t@xlslib_core@@@std@@@std@@QBE?AV?$_Vector_iterator@V?$_Vector_val@PAVrange_t@xlslib_core@@V?$allocator@PAVrange_t@xlslib_core@@@std@@@std@@@2@V?$_Vector_const_iterator@V?$_Vector_val@PAVrange_t@xlslib_core@@V?$allocator@PAVrange_t@xlslib_core@@@std@@@std@@@2@@Z
	?_Tidy@?$vector@V?$basic_string@DU?$char_traits@D@std@@V?$allocator@D@2@@std@@V?$allocator@V?$basic_string@DU?$char_traits@D@std@@V?$allocator@D@2@@std@@@2@@std@@IAEXXZ
	?fontheight@cell_t@xlslib_core@@QAEXG@Z
	xlsWorksheetValidateCell
	?SetCellMode@xf_t@xlslib_core@@QAEX_N@Z
	??$?0AAV?$_Tree_const_iterator@V?$_Tree_val@V?$_Tset_traits@PAUcolinfo_t@xlslib_core@@Vcolinfosort@2@V?$allocator@PAUcolinfo_t@xlslib_core@@@std@@$0A@@std@@@std@@@std@@_N@?$pair@V?$_Tree_const_iterator@V?$_Tree_val@V?$_Tset_traits@PAUcolinfo_t@xlslib_core@@Vcolinfosort@2@V?$allocator@PAUcolinfo_t@xlslib_core@@@std@@$0A@@std@@@std@@@std@@_N@std@@QAE@AAV?$_Tree_const_iterator@V?$_Tree_val@V?$_Tset_traits@PAUcolinfo_t@xlslib_core@@Vcolinfosort@2@V?$allocator@PAUcolinfo_t@xlslib_core@@@std@@$0A@@std@@@std@@@1@$$QA_N@Z
	xlsWorksheetValidateCellW
	xlsWorksheetHyperLink
	??0?$allocator@PAVcell_t@xlslib_core@@@std@@QAE@XZ
	?construct@?$allocator@V?$basic_string@DU?$char_traits@D@std@@V?$allocator@D@2@@std@@@std@@QAEXPAV?$basic_string@DU?$char_traits@D@std@@V?$allocator@D@2@@2@$$QAV32@@Z
	?_Tidy@?$vector@PBVlabel_t@xlslib_core@@V?$allocator@PBVlabel_t@xlslib_core@@@std@@@std@@IAEXXZ
	?copy@?$char_traits@G@std@@SAPAGPAGPBGI@Z
	??$_Cons_val@V?$allocator@U?$pair@PAVxf_t@xlslib_core@@UborderedXft@2@@std@@@std@@U?$pair@PAVxf_t@xlslib_core@@UborderedXft@2@@2@AAU32@@std@@YAXAAV?$allocator@U?$pair@PAVxf_t@xlslib_core@@UborderedXft@2@@std@@@0@PAU?$pair@PAVxf_t@xlslib_core@@UborderedXft@2@@0@AAU20@@Z
	xlsWorksheetHyperLinkW
	xlsCellFont
	?hidden@cell_t@xlslib_core@@QAEX_N@Z
	?_Rmost@?$_Tree@V?$_Tset_traits@U?$pair@PAVxf_t@xlslib_core@@UborderedXft@2@@std@@VxfSorter@xlslib_core@@V?$allocator@U?$pair@PAVxf_t@xlslib_core@@UborderedXft@2@@std@@@2@$0A@@std@@@std@@IBEAAPAU_Node@?$_Tree_nod@V?$_Tset_traits@U?$pair@PAVxf_t@xlslib_core@@UborderedXft@2@@std@@VxfSorter@xlslib_core@@V?$allocator@U?$pair@PAVxf_t@xlslib_core@@UborderedXft@2@@std@@@2@$0A@@std@@@2@XZ
	xlsCellFormat
	??$forward@AAPAVCOleProp@xlslib_core@@@std@@YAAAPAVCOleProp@xlslib_core@@AAPAV12@@Z
	xlsCellHalign
	xlsCellValign
	?MakeCBoolean@CDataStorage@xlslib_core@@QAEPAVCBoolean@2@ABVboolean_t@2@@Z
	xlsCellIndent
	?scientific@?$_Iosb@H@std@@2W4_Fmtflags@12@B
	xlsCellOrientation
	??$move@AAV?$_Tree_const_iterator@V?$_Tree_val@V?$_Tset_traits@PAVcell_t@xlslib_core@@Vinsertsort@2@V?$allocator@PAVcell_t@xlslib_core@@@std@@$0A@@std@@@std@@@std@@@std@@YA$$QAV?$_Tree_const_iterator@V?$_Tree_val@V?$_Tset_traits@PAVcell_t@xlslib_core@@Vinsertsort@2@V?$allocator@PAVcell_t@xlslib_core@@@std@@$0A@@std@@@std@@@0@AAV10@@Z
	xlsCellFillbgcolor
	??$_Allocate@PAVformula_t@xlslib_core@@@std@@YAPAPAVformula_t@xlslib_core@@IPAPAV12@@Z
	?GetBoldStyle@font_t@xlslib_core@@QBEGXZ
	??1expression_node_factory_t@xlslib_core@@EAE@XZ
	xlsCellFillstyle
	xlsCellLocked
	?size@?$vector@IV?$allocator@I@std@@@std@@QBEIXZ
	xlsCellWrap
	xlsCellBorderstyle
	xlsCellBordercolor
	??$_Destroy@V?$basic_string@_WU?$char_traits@_W@std@@V?$allocator@_W@2@@std@@@std@@YAXPAV?$basic_string@_WU?$char_traits@_W@std@@V?$allocator@_W@2@@0@@Z
	?_Copy@?$basic_string@GU?$char_traits@G@std@@V?$allocator@G@2@@std@@QAEXII@Z
	?begin@?$vector@PAVxf_t@xlslib_core@@V?$allocator@PAVxf_t@xlslib_core@@@std@@@std@@QAE?AV?$_Vector_iterator@V?$_Vector_val@PAVxf_t@xlslib_core@@V?$allocator@PAVxf_t@xlslib_core@@@std@@@std@@@2@XZ
	??$?0AAV?$_Tree_const_iterator@V?$_Tree_val@V?$_Tset_traits@PAUcolinfo_t@xlslib_core@@Vcolinfosort@2@V?$allocator@PAUcolinfo_t@xlslib_core@@@std@@$0A@@std@@@std@@@std@@_N@?$_Pair_base@V?$_Tree_const_iterator@V?$_Tree_val@V?$_Tset_traits@PAUcolinfo_t@xlslib_core@@Vcolinfosort@2@V?$allocator@PAUcolinfo_t@xlslib_core@@@std@@$0A@@std@@@std@@@std@@_N@std@@QAE@AAV?$_Tree_const_iterator@V?$_Tree_val@V?$_Tset_traits@PAUcolinfo_t@xlslib_core@@Vcolinfosort@2@V?$allocator@PAUcolinfo_t@xlslib_core@@@std@@$0A@@std@@@std@@@1@$$QA_N@Z
	??D?$_Vector_const_iterator@V?$_Vector_val@PAVworksheet@xlslib_core@@V?$allocator@PAVworksheet@xlslib_core@@@std@@@std@@@std@@QBEABQAVworksheet@xlslib_core@@XZ
	xlsCellBordercolorIdx
	?allocate@?$allocator@G@std@@QAEPAGI@Z
	xlsCellFontheight
	??0?$allocator@PAVworksheet@xlslib_core@@@std@@QAE@ABV01@@Z
	??9?$_Tree_const_iterator@V?$_Tree_val@V?$_Tset_traits@PAVcell_t@xlslib_core@@Vinsertsort@2@V?$allocator@PAVcell_t@xlslib_core@@@std@@$0A@@std@@@std@@@std@@QBE_NABV01@@Z
	xlsCellFontbold
	??0boolean_value_node_t@xlslib_core@@QAE@AAVCGlobalRecords@1@_N@Z
	xlsCellFontunderline
	?reserve@?$vector@PAUHyperLink@xlslib_core@@V?$allocator@PAUHyperLink@xlslib_core@@@std@@@std@@QAEXI@Z
	xlsCellFontscript
	?SetBGColorIndex@CExtFormat@xlslib_core@@QAEXG@Z
	?fontstrikeout@cell_t@xlslib_core@@QAEX_N@Z
	xlsCellFontitalic
	??D?$_Tree_const_iterator@V?$_Tree_val@V?$_Tset_traits@PAUcolinfo_t@xlslib_core@@Vcolinfosort@2@V?$allocator@PAUcolinfo_t@xlslib_core@@@std@@$0A@@std@@@std@@@std@@QBEABQAUcolinfo_t@xlslib_core@@XZ
	xlsCellFontoutline
	??0?$allocator@PBVlabel_t@xlslib_core@@@std@@QAE@XZ
	?GetHAlign@xf_t@xlslib_core@@QBEEXZ
	?allocate@?$allocator@U_Node@?$_Tree_nod@V?$_Tset_traits@PAVcell_t@xlslib_core@@Vinsertsort@2@V?$allocator@PAVcell_t@xlslib_core@@@std@@$0A@@std@@@std@@@std@@QAEPAU_Node@?$_Tree_nod@V?$_Tset_traits@PAVcell_t@xlslib_core@@Vinsertsort@2@V?$allocator@PAVcell_t@xlslib_core@@@std@@$0A@@std@@@2@I@Z
	??$?0AAV?$_Tree_const_iterator@V?$_Tree_val@V?$_Tset_traits@PAVHPSFitem@xlslib_core@@Vinsertsort2@2@V?$allocator@PAVHPSFitem@xlslib_core@@@std@@$0A@@std@@@std@@@std@@AAV01@@?$_Pair_base@V?$_Tree_const_iterator@V?$_Tree_val@V?$_Tset_traits@PAVHPSFitem@xlslib_core@@Vinsertsort2@2@V?$allocator@PAVHPSFitem@xlslib_core@@@std@@$0A@@std@@@std@@@std@@V12@@std@@QAE@AAV?$_Tree_const_iterator@V?$_Tree_val@V?$_Tset_traits@PAVHPSFitem@xlslib_core@@Vinsertsort2@2@V?$allocator@PAVHPSFitem@xlslib_core@@@std@@$0A@@std@@@std@@@1@0@Z
	??0?$allocator@N@std@@QAE@ABV01@@Z
	xlsXformatGetHAlign
	?SetFormat@xf_t@xlslib_core@@QAEXW4format_number_t@2@@Z
	xlsXformatSetVAlign
	??0label_t@xlslib_core@@AAE@AAVCGlobalRecords@1@IIABV?$basic_string@_WU?$char_traits@_W@std@@V?$allocator@_W@2@@std@@PAVxf_t@1@@Z
	?SetVAlign@xf_t@xlslib_core@@QAEXW4valign_option_t@2@@Z
	?SetIndent@xf_t@xlslib_core@@QAEXW4indent_option_t@2@@Z
	?GetIndent@xf_t@xlslib_core@@QBEEXZ
	?Dump@workbook@xlslib_core@@QAEHABV?$basic_string@DU?$char_traits@D@std@@V?$allocator@D@2@@std@@@Z
	?SetFillBGColor@xf_t@xlslib_core@@QAEXW4color_name_t@2@@Z
	?erase@?$basic_string@_WU?$char_traits@_W@std@@V?$allocator@_W@2@@std@@QAEAAV12@II@Z
	xlsXformatSetFillBGColor
	?size@?$vector@V?$basic_string@DU?$char_traits@D@std@@V?$allocator@D@2@@std@@V?$allocator@V?$basic_string@DU?$char_traits@D@std@@V?$allocator@D@2@@std@@@2@@std@@QBEIXZ
	xlsXformatGetFillBGColorIdx
	?GetFillBGColorIdx@xf_t@xlslib_core@@QBEGXZ
	?GetSize@CUnitStore@xlslib_core@@QBEIXZ
	?deallocate@?$allocator@PAVrange_t@xlslib_core@@@std@@QAEXPAPAVrange_t@xlslib_core@@I@Z
	?push_back@?$vector@NV?$allocator@N@std@@@std@@QAEXABN@Z
	xlsXformatGetFillStyle
	??$_Buynode@AAU?$pair@PAVxf_t@xlslib_core@@UborderedXft@2@@std@@@?$_Tree_val@V?$_Tset_traits@U?$pair@PAVxf_t@xlslib_core@@UborderedXft@2@@std@@VxfSorter@xlslib_core@@V?$allocator@U?$pair@PAVxf_t@xlslib_core@@UborderedXft@2@@std@@@2@$0A@@std@@@std@@QAEPAU_Node@?$_Tree_nod@V?$_Tset_traits@U?$pair@PAVxf_t@xlslib_core@@UborderedXft@2@@std@@VxfSorter@xlslib_core@@V?$allocator@U?$pair@PAVxf_t@xlslib_core@@UborderedXft@2@@std@@@2@$0A@@std@@@1@AAU?$pair@PAVxf_t@xlslib_core@@UborderedXft@2@@1@@Z
	?GetFillStyle@xf_t@xlslib_core@@QBEEXZ
	??0float_value_node_t@xlslib_core@@QAE@AAVCGlobalRecords@1@N@Z
	?SetIndex@COleProp@xlslib_core@@QAEHH@Z
	?push_back@?$vector@VCUnitStore@xlslib_core@@V?$allocator@VCUnitStore@xlslib_core@@@std@@@std@@QAEX$$QAVCUnitStore@xlslib_core@@@Z
	xlsXformatIsLocked
	?IsLocked@xf_t@xlslib_core@@QBE_NXZ
	?MakeCWindow2@CDataStorage@xlslib_core@@QAEPAVCWindow2@2@_N@Z
	??$_Destroy@V?$basic_string@DU?$char_traits@D@std@@V?$allocator@D@2@@std@@@std@@YAXPAV?$basic_string@DU?$char_traits@D@std@@V?$allocator@D@2@@0@@Z
	?indent@range@xlslib_core@@UAEXW4indent_option_t@2@@Z
	??1CBinFile@xlslib_core@@UAE@XZ
	?_Myptr@?$basic_string@_WU?$char_traits@_W@std@@V?$allocator@_W@2@@std@@QBEPB_WXZ
	xlsXformatSetHidden
	?InitWithValue@CUnitStore@xlslib_core@@QAEDEI@Z
	?deallocate@?$allocator@PAVrange@xlslib_core@@@std@@QAEXPAPAVrange@xlslib_core@@I@Z
	?SetHidden@xf_t@xlslib_core@@QAEX_N@Z
	?IsHidden@xf_t@xlslib_core@@QBE_NXZ
	?halign@cell_t@xlslib_core@@QAEXW4halign_option_t@2@@Z
	?_Compat@?$_Vector_const_iterator@V?$_Vector_val@PAVboundsheet_t@xlslib_core@@V?$allocator@PAVboundsheet_t@xlslib_core@@@std@@@std@@@std@@QBEXABV12@@Z
	?unitbuf@?$_Iosb@H@std@@2W4_Fmtflags@12@B
	xlsXformatIsHidden
	??$_Cons_val@V?$allocator@N@std@@NABN@std@@YAXAAV?$allocator@N@0@PANABN@Z
	??$forward@ABQAUHyperLink@xlslib_core@@@std@@YAABQAUHyperLink@xlslib_core@@ABQAU12@@Z
	??1?$set@PAVrowheight_t@xlslib_core@@Vrowheightsort@2@V?$allocator@PAVrowheight_t@xlslib_core@@@std@@@std@@QAE@XZ
	?Usage@font_t@xlslib_core@@QBEIXZ
	xlsXformatSetBorderStyle
	xlsXformatSetBorderColor
	xlsXformatGetBorderColorIdx
	?GetBorderColorIdx@xf_t@xlslib_core@@QBEGW4border_side_t@2@@Z
	?SetFillFGColor@xf_t@xlslib_core@@QAEXE@Z
	xlsFontSetHeight
	?SetXF@cell_t@xlslib_core@@QAEXPAVxf_t@2@@Z
	?insert@?$basic_string@DU?$char_traits@D@std@@V?$allocator@D@2@@std@@QAEAAV12@IID@Z
	?assign@?$char_traits@G@std@@SAXAAGABG@Z
	xlsFontSetName
	xlsFontGetName
	?GetHeight@font_t@xlslib_core@@QBEGXZ
	?reserve@?$vector@PAVCOleProp@xlslib_core@@V?$allocator@PAVCOleProp@xlslib_core@@@std@@@std@@QAEXI@Z
	??4?$basic_string@_WU?$char_traits@_W@std@@V?$allocator@_W@2@@std@@QAEAAV01@ABV01@@Z
	??1CRecord@xlslib_core@@MAE@XZ
	xlsFontGetBoldStyle
	xlsXformatSetCellMode
	?SetUnderlineStyle@font_t@xlslib_core@@QAEXW4underline_option_t@2@@Z
	?allocate@?$allocator@VCUnitStore@xlslib_core@@@std@@QAEPAVCUnitStore@xlslib_core@@I@Z
	xlsFontSetScriptStyle
	?SetScriptStyle@font_t@xlslib_core@@QAEXW4script_option_t@2@@Z
	?allocate@?$allocator@N@std@@QAEPANI@Z
	xlsFontSetColor
	??$_Val_type@PAPAUstyle_t@xlslib_core@@@std@@YAPAPAUstyle_t@xlslib_core@@PAPAU12@@Z
	??$forward@AAPAUstyle_t@xlslib_core@@@std@@YAAAPAUstyle_t@xlslib_core@@AAPAU12@@Z
	?SetColor@font_t@xlslib_core@@QAEXW4color_name_t@2@@Z
	??$_Construct@PAUHyperLink@xlslib_core@@ABQAU12@@std@@YAXPAPAUHyperLink@xlslib_core@@ABQAU12@@Z
	??$_Destroy_range@V?$allocator@V?$basic_string@DU?$char_traits@D@std@@V?$allocator@D@2@@std@@@std@@@std@@YAXPAV?$basic_string@DU?$char_traits@D@std@@V?$allocator@D@2@@0@0AAV?$allocator@V?$basic_string@DU?$char_traits@D@std@@V?$allocator@D@2@@std@@@0@@Z
	?SetHorizAlign@CExtFormat@xlslib_core@@QAEXE@Z
	?GetColorIdx@font_t@xlslib_core@@QBEGXZ
	?GetNode@COleFileSystem@xlslib_core@@QAEHABV?$basic_string@DU?$char_traits@D@std@@V?$allocator@D@2@@std@@AAV?$_Vector_iterator@V?$_Vector_val@PAVCOleProp@xlslib_core@@V?$allocator@PAVCOleProp@xlslib_core@@@std@@@std@@@4@@Z
	?max_size@?$vector@NV?$allocator@N@std@@@std@@QBEIXZ
	?SetPreviousIndex@COleProp@xlslib_core@@QAEHH@Z
	?end@?$_Tree@V?$_Tset_traits@PAVHPSFitem@xlslib_core@@Vinsertsort2@2@V?$allocator@PAVHPSFitem@xlslib_core@@@std@@$0A@@std@@@std@@QAE?AV?$_Tree_const_iterator@V?$_Tree_val@V?$_Tset_traits@PAVHPSFitem@xlslib_core@@Vinsertsort2@2@V?$allocator@PAVHPSFitem@xlslib_core@@@std@@$0A@@std@@@std@@@2@XZ
	xlsFontSetItalic
	??$addressof@QAVworksheet@xlslib_core@@@std@@YAPBQAVworksheet@xlslib_core@@ABQAV12@@Z
	??$construct@AAPAUstyle_t@xlslib_core@@@?$allocator@PAUstyle_t@xlslib_core@@@std@@QAEXPAPAUstyle_t@xlslib_core@@AAPAU23@@Z
	?reserve@?$vector@PAVfont_t@xlslib_core@@V?$allocator@PAVfont_t@xlslib_core@@@std@@@std@@QAEXI@Z
	xlsXformatGetTxtOrientation
	?GetValue16From@CUnit@xlslib_core@@QBEDPAGI@Z
	xlsFontSetStrikeout
	xlsFontSetShadow
	??$forward@PAVxf_t@xlslib_core@@@std@@YA$$QAPAVxf_t@xlslib_core@@AAPAV12@@Z
	?GetIndex@worksheet@xlslib_core@@QBEGXZ
	?GetFormatIndex@xf_t@xlslib_core@@QBEGXZ
	?begin@?$_Tree@V?$_Tset_traits@PAVrowheight_t@xlslib_core@@Vrowheightsort@2@V?$allocator@PAVrowheight_t@xlslib_core@@@std@@$0A@@std@@@std@@QAE?AV?$_Tree_const_iterator@V?$_Tree_val@V?$_Tset_traits@PAVrowheight_t@xlslib_core@@Vrowheightsort@2@V?$allocator@PAVrowheight_t@xlslib_core@@@std@@$0A@@std@@@std@@@2@XZ
	??E?$_Vector_const_iterator@V?$_Vector_val@PAUHyperLink@xlslib_core@@V?$allocator@PAUHyperLink@xlslib_core@@@std@@@std@@@std@@QAEAAV01@XZ
	?MakeCNumber@CDataStorage@xlslib_core@@QAEPAVCNumber@2@ABVnumber_t@2@@Z
	??$_Dest_val@V?$allocator@V?$basic_string@_WU?$char_traits@_W@std@@V?$allocator@_W@2@@std@@@std@@V?$basic_string@_WU?$char_traits@_W@std@@V?$allocator@_W@2@@2@@std@@YAXAAV?$allocator@V?$basic_string@_WU?$char_traits@_W@std@@V?$allocator@_W@2@@std@@@0@PAV?$basic_string@_WU?$char_traits@_W@std@@V?$allocator@_W@2@@0@@Z
	??0?$basic_string@DU?$char_traits@D@std@@V?$allocator@D@2@@std@@QAE@PBD@Z
	?GetStrikeout@font_t@xlslib_core@@QBE_NXZ
	?SetPosition@window1@xlslib_core@@QAEXGG@Z
	?_Getfacet@locale@std@@QBEPBVfacet@12@I@Z
	??Y?$_Vector_const_iterator@V?$_Vector_val@VCUnitStore@xlslib_core@@V?$allocator@VCUnitStore@xlslib_core@@@std@@@std@@@std@@QAEAAV01@H@Z
	??Y?$basic_string@DU?$char_traits@D@std@@V?$allocator@D@2@@std@@QAEAAV01@D@Z
	??0?$basic_string@_WU?$char_traits@_W@std@@V?$allocator@_W@2@@std@@QAE@PB_W@Z
	?erase@?$list@PAV?$basic_string@DU?$char_traits@D@std@@V?$allocator@D@2@@std@@V?$allocator@PAV?$basic_string@DU?$char_traits@D@std@@V?$allocator@D@2@@std@@@2@@std@@QAE?AV?$_List_iterator@V?$_List_val@PAV?$basic_string@DU?$char_traits@D@std@@V?$allocator@D@2@@std@@V?$allocator@PAV?$basic_string@DU?$char_traits@D@std@@V?$allocator@D@2@@std@@@2@@std@@@2@V?$_List_const_iterator@V?$_List_val@PAV?$basic_string@DU?$char_traits@D@std@@V?$allocator@D@2@@std@@V?$allocator@PAV?$basic_string@DU?$char_traits@D@std@@V?$allocator@D@2@@std@@@2@@std@@@2@@Z
	?reserve@?$vector@NV?$allocator@N@std@@@std@@QAEXI@Z
	??1?$basic_string@GU?$char_traits@G@std@@V?$allocator@G@2@@std@@QAE@XZ
	?capacity@?$vector@V?$basic_string@_WU?$char_traits@_W@std@@V?$allocator@_W@2@@std@@V?$allocator@V?$basic_string@_WU?$char_traits@_W@std@@V?$allocator@_W@2@@std@@@2@@std@@QBEIXZ
	??$move@AAUborderedXft@xlslib_core@@@std@@YA$$QAUborderedXft@xlslib_core@@AAU12@@Z
	??Y?$basic_string@_WU?$char_traits@_W@std@@V?$allocator@_W@2@@std@@QAEAAV01@_W@Z
	?end@?$vector@PAVrange@xlslib_core@@V?$allocator@PAVrange@xlslib_core@@@std@@@std@@QAE?AV?$_Vector_iterator@V?$_Vector_val@PAVrange@xlslib_core@@V?$allocator@PAVrange@xlslib_core@@@std@@@std@@@2@XZ
	?messages@?$_Locbase@H@std@@2HB
	?push_back@?$vector@V?$basic_string@DU?$char_traits@D@std@@V?$allocator@D@2@@std@@V?$allocator@V?$basic_string@DU?$char_traits@D@std@@V?$allocator@D@2@@std@@@2@@std@@QAEXABV?$basic_string@DU?$char_traits@D@std@@V?$allocator@D@2@@2@@Z
	?push_back@?$vector@V?$basic_string@_WU?$char_traits@_W@std@@V?$allocator@_W@2@@std@@V?$allocator@V?$basic_string@_WU?$char_traits@_W@std@@V?$allocator@_W@2@@std@@@2@@std@@QAEXABV?$basic_string@_WU?$char_traits@_W@std@@V?$allocator@_W@2@@2@@Z
	?append@?$basic_string@DU?$char_traits@D@std@@V?$allocator@D@2@@std@@QAEAAV12@ID@Z
	??0rowheight_t@xlslib_core@@QAE@XZ
	?assign@?$basic_string@DU?$char_traits@D@std@@V?$allocator@D@2@@std@@QAEAAV12@PBD@Z
	?assign@?$basic_string@_WU?$char_traits@_W@std@@V?$allocator@_W@2@@std@@QAEAAV12@ABV12@@Z
	??$_Dest_val@V?$allocator@PAVrowheight_t@xlslib_core@@@std@@PAVrowheight_t@xlslib_core@@@std@@YAXAAV?$allocator@PAVrowheight_t@xlslib_core@@@0@PAPAVrowheight_t@xlslib_core@@@Z
	?construct@?$allocator@N@std@@QAEXPANABN@Z
	?push_back@?$vector@PBVlabel_t@xlslib_core@@V?$allocator@PBVlabel_t@xlslib_core@@@std@@@std@@QAEX$$QAPBVlabel_t@xlslib_core@@@Z
	??1xf_init_t@xlslib_core@@QAE@XZ
	?GetStreamPos@boundsheet_t@xlslib_core@@QBEIXZ
	?assign@?$basic_string@_WU?$char_traits@_W@std@@V?$allocator@_W@2@@std@@QAEAAV12@$$QAV12@@Z
	??$addressof@VCUnitStore@xlslib_core@@@std@@YAPAVCUnitStore@xlslib_core@@AAV12@@Z
	?max_size@?$allocator@VCUnitStore@xlslib_core@@@std@@QBEIXZ
	?append@?$basic_string@_WU?$char_traits@_W@std@@V?$allocator@_W@2@@std@@QAEAAV12@I_W@Z
	?_Destroy@?$vector@V?$basic_string@DU?$char_traits@D@std@@V?$allocator@D@2@@std@@V?$allocator@V?$basic_string@DU?$char_traits@D@std@@V?$allocator@D@2@@std@@@2@@std@@IAEXPAV?$basic_string@DU?$char_traits@D@std@@V?$allocator@D@2@@2@0@Z
	?hyperLink@worksheet@xlslib_core@@QAEXPBVcell_t@2@ABV?$basic_string@_WU?$char_traits@_W@std@@V?$allocator@_W@2@@std@@1@Z
	?assign@?$basic_string@_WU?$char_traits@_W@std@@V?$allocator@_W@2@@std@@QAEAAV12@ABV12@II@Z
	?_Reserve@?$vector@NV?$allocator@N@std@@@std@@IAEXI@Z
	?_Unlock@?$basic_filebuf@DU?$char_traits@D@std@@@std@@UAEXXZ
	?_Reserve@?$vector@V?$basic_string@DU?$char_traits@D@std@@V?$allocator@D@2@@std@@V?$allocator@V?$basic_string@DU?$char_traits@D@std@@V?$allocator@D@2@@std@@@2@@std@@IAEXI@Z
	??1?$vector@V?$basic_string@DU?$char_traits@D@std@@V?$allocator@D@2@@std@@V?$allocator@V?$basic_string@DU?$char_traits@D@std@@V?$allocator@D@2@@std@@@2@@std@@QAE@XZ
	?_Eos@?$basic_string@GU?$char_traits@G@std@@V?$allocator@G@2@@std@@QAEXI@Z
	?_Reserve@?$vector@V?$basic_string@_WU?$char_traits@_W@std@@V?$allocator@_W@2@@std@@V?$allocator@V?$basic_string@_WU?$char_traits@_W@std@@V?$allocator@_W@2@@std@@@2@@std@@IAEXI@Z
	??1?$vector@V?$basic_string@_WU?$char_traits@_W@std@@V?$allocator@_W@2@@std@@V?$allocator@V?$basic_string@_WU?$char_traits@_W@std@@V?$allocator@_W@2@@std@@@2@@std@@QAE@XZ
	?_Make_iter@?$vector@Urowblocksize_t@xlslib_core@@V?$allocator@Urowblocksize_t@xlslib_core@@@std@@@std@@QBE?AV?$_Vector_iterator@V?$_Vector_val@Urowblocksize_t@xlslib_core@@V?$allocator@Urowblocksize_t@xlslib_core@@@std@@@std@@@2@V?$_Vector_const_iterator@V?$_Vector_val@Urowblocksize_t@xlslib_core@@V?$allocator@Urowblocksize_t@xlslib_core@@@std@@@std@@@2@@Z
	?bordercolor@cell_t@xlslib_core@@QAEXW4border_side_t@2@E@Z
	?DumpData@float_value_node_t@xlslib_core@@UBEDAAVformula_t@2@_N@Z
	?_Tidy@?$vector@V?$basic_string@_WU?$char_traits@_W@std@@V?$allocator@_W@2@@std@@V?$allocator@V?$basic_string@_WU?$char_traits@_W@std@@V?$allocator@_W@2@@std@@@2@@std@@IAEXXZ
	?GetFormatStr@format_t@xlslib_core@@QBEABV?$basic_string@GU?$char_traits@G@std@@V?$allocator@G@2@@std@@XZ
	?_Chassign@?$basic_string@DU?$char_traits@D@std@@V?$allocator@D@2@@std@@QAEXIID@Z
	?_Init@?$basic_filebuf@DU?$char_traits@D@std@@@std@@IAEXPAU_iobuf@@W4_Initfl@12@@Z
	??H?$_Vector_iterator@V?$_Vector_val@PAVCUnit@xlslib_core@@V?$allocator@PAVCUnit@xlslib_core@@@std@@@std@@@std@@QBE?AV01@H@Z
	??$_Cons_val@V?$allocator@PAVfont_t@xlslib_core@@@std@@PAVfont_t@xlslib_core@@ABQAV34@@std@@YAXAAV?$allocator@PAVfont_t@xlslib_core@@@0@PAPAVfont_t@xlslib_core@@ABQAV23@@Z
	?_Chassign@?$basic_string@GU?$char_traits@G@std@@V?$allocator@G@2@@std@@QAEXIIG@Z
	?Init@CUnitStore@xlslib_core@@QAEDPBEII@Z
	??$_Allocate@PAUstyle_t@xlslib_core@@@std@@YAPAPAUstyle_t@xlslib_core@@IPAPAU12@@Z
	??$forward@ABQAVboundsheet_t@xlslib_core@@@std@@YAABQAVboundsheet_t@xlslib_core@@ABQAV12@@Z
	??8?$_Vector_const_iterator@V?$_Vector_val@PBVlabel_t@xlslib_core@@V?$allocator@PBVlabel_t@xlslib_core@@@std@@@std@@@std@@QBE_NABV01@@Z
	?MakeCBSheet@CDataStorage@xlslib_core@@QAEPAVCBSheet@2@PBVboundsheet_t@2@@Z
	?_Chassign@?$basic_string@_WU?$char_traits@_W@std@@V?$allocator@_W@2@@std@@QAEXII_W@Z
	?_Make_iter@?$vector@PAUDataValidation@xlslib_core@@V?$allocator@PAUDataValidation@xlslib_core@@@std@@@std@@QBE?AV?$_Vector_iterator@V?$_Vector_val@PAUDataValidation@xlslib_core@@V?$allocator@PAUDataValidation@xlslib_core@@@std@@@std@@@2@V?$_Vector_const_iterator@V?$_Vector_val@PAUDataValidation@xlslib_core@@V?$allocator@PAUDataValidation@xlslib_core@@@std@@@std@@@2@@Z
	?_Grow@?$basic_string@_WU?$char_traits@_W@std@@V?$allocator@_W@2@@std@@QAE_NI_N@Z
	?capacity@?$vector@NV?$allocator@N@std@@@std@@QBEIXZ
	?end@?$basic_string@DU?$char_traits@D@std@@V?$allocator@D@2@@std@@QBE?AV?$_String_const_iterator@DU?$char_traits@D@std@@V?$allocator@D@2@@2@XZ
	??$_Destroy_range@V?$allocator@V?$basic_string@_WU?$char_traits@_W@std@@V?$allocator@_W@2@@std@@@std@@@std@@YAXPAV?$basic_string@_WU?$char_traits@_W@std@@V?$allocator@_W@2@@0@0AAV?$allocator@V?$basic_string@_WU?$char_traits@_W@std@@V?$allocator@_W@2@@std@@@0@U_Nonscalar_ptr_iterator_tag@0@@Z
	?SetFloatingPoint@estimated_formula_result_t@xlslib_core@@QAENN@Z
	?_Grow_to@?$vector@NV?$allocator@N@std@@@std@@IBEII@Z
	??$addressof@$$CBV?$basic_string@DU?$char_traits@D@std@@V?$allocator@D@2@@std@@@std@@YAPBV?$basic_string@DU?$char_traits@D@std@@V?$allocator@D@2@@0@ABV10@@Z
	??0?$allocator@G@std@@QAE@ABV01@@Z
	?operator_new_dbg@@YAPAXIPBDH@Z
	?size@?$vector@VCUnitStore@xlslib_core@@V?$allocator@VCUnitStore@xlslib_core@@@std@@@std@@QBEIXZ
	??9?$_Vector_const_iterator@V?$_Vector_val@PAVboundsheet_t@xlslib_core@@V?$allocator@PAVboundsheet_t@xlslib_core@@@std@@@std@@@std@@QBE_NABV01@@Z
	?reserve@?$vector@V?$basic_string@DU?$char_traits@D@std@@V?$allocator@D@2@@std@@V?$allocator@V?$basic_string@DU?$char_traits@D@std@@V?$allocator@D@2@@std@@@2@@std@@QAEXI@Z
	??$_Cons_val@V?$allocator@V?$basic_string@_WU?$char_traits@_W@std@@V?$allocator@_W@2@@std@@@std@@V?$basic_string@_WU?$char_traits@_W@std@@V?$allocator@_W@2@@2@AAV32@@std@@YAXAAV?$allocator@V?$basic_string@_WU?$char_traits@_W@std@@V?$allocator@_W@2@@std@@@0@PAV?$basic_string@_WU?$char_traits@_W@std@@V?$allocator@_W@2@@0@AAV20@@Z
	??0?$_Tree_unchecked_const_iterator@V?$_Tree_val@V?$_Tset_traits@U?$pair@PAVxf_t@xlslib_core@@UborderedXft@2@@std@@VxfSorter@xlslib_core@@V?$allocator@U?$pair@PAVxf_t@xlslib_core@@UborderedXft@2@@std@@@2@$0A@@std@@@std@@U_Iterator_base0@2@@std@@QAE@PAU_Node@?$_Tree_nod@V?$_Tset_traits@U?$pair@PAVxf_t@xlslib_core@@UborderedXft@2@@std@@VxfSorter@xlslib_core@@V?$allocator@U?$pair@PAVxf_t@xlslib_core@@UborderedXft@2@@std@@@2@$0A@@std@@@1@PBV?$_Tree_val@V?$_Tset_traits@U?$pair@PAVxf_t@xlslib_core@@UborderedXft@2@@std@@VxfSorter@xlslib_core@@V?$allocator@U?$pair@PAVxf_t@xlslib_core@@UborderedXft@2@@std@@@2@$0A@@std@@@1@@Z
	?max_size@?$allocator@V?$basic_string@DU?$char_traits@D@std@@V?$allocator@D@2@@std@@@std@@QBEIXZ
	?max_size@?$allocator@V?$basic_string@_WU?$char_traits@_W@std@@V?$allocator@_W@2@@std@@@std@@QBEIXZ
	??$_Destroy_range@V?$allocator@V?$basic_string@DU?$char_traits@D@std@@V?$allocator@D@2@@std@@@std@@@std@@YAXPAV?$basic_string@DU?$char_traits@D@std@@V?$allocator@D@2@@0@0AAV?$allocator@V?$basic_string@DU?$char_traits@D@std@@V?$allocator@D@2@@std@@@0@U_Nonscalar_ptr_iterator_tag@0@@Z
	?_Grow_to@?$vector@V?$basic_string@DU?$char_traits@D@std@@V?$allocator@D@2@@std@@V?$allocator@V?$basic_string@DU?$char_traits@D@std@@V?$allocator@D@2@@std@@@2@@std@@IBEII@Z
	?_Lbound@?$_Tree@V?$_Tset_traits@PAVrowheight_t@xlslib_core@@Vrowheightsort@2@V?$allocator@PAVrowheight_t@xlslib_core@@@std@@$0A@@std@@@std@@IAEPAU_Node@?$_Tree_nod@V?$_Tset_traits@PAVrowheight_t@xlslib_core@@Vrowheightsort@2@V?$allocator@PAVrowheight_t@xlslib_core@@@std@@$0A@@std@@@2@ABQAVrowheight_t@xlslib_core@@@Z
	?_Grow_to@?$vector@V?$basic_string@_WU?$char_traits@_W@std@@V?$allocator@_W@2@@std@@V?$allocator@V?$basic_string@_WU?$char_traits@_W@std@@V?$allocator@_W@2@@std@@@2@@std@@IBEII@Z
	?Clip@CDataStorage@xlslib_core@@QAEIPAVCUnit@2@@Z
	?reserve@?$vector@PAVformula_t@xlslib_core@@V?$allocator@PAVformula_t@xlslib_core@@@std@@@std@@QAEXI@Z
	??$_Umove@PAPAUHyperLink@xlslib_core@@@?$vector@PAUHyperLink@xlslib_core@@V?$allocator@PAUHyperLink@xlslib_core@@@std@@@std@@IAEPAPAUHyperLink@xlslib_core@@PAPAU23@00@Z
	?SetLocked@CExtFormat@xlslib_core@@QAEX_N@Z
	?construct@?$allocator@U?$pair@PAVxf_t@xlslib_core@@UborderedXft@2@@std@@@std@@QAEXPAU?$pair@PAVxf_t@xlslib_core@@UborderedXft@2@@2@$$QAU32@@Z
	?reserve@?$vector@V?$basic_string@_WU?$char_traits@_W@std@@V?$allocator@_W@2@@std@@V?$allocator@V?$basic_string@_WU?$char_traits@_W@std@@V?$allocator@_W@2@@std@@@2@@std@@QAEXI@Z
	?MakeCFont@CDataStorage@xlslib_core@@QAEPAVCFont@2@PBVfont_t@2@@Z
	?_Myptr@?$basic_string@_WU?$char_traits@_W@std@@V?$allocator@_W@2@@std@@QAEPA_WXZ
	?size@?$vector@V?$basic_string@_WU?$char_traits@_W@std@@V?$allocator@_W@2@@std@@V?$allocator@V?$basic_string@_WU?$char_traits@_W@std@@V?$allocator@_W@2@@std@@@2@@std@@QBEIXZ
	??$_Destroy_range@V?$allocator@V?$basic_string@_WU?$char_traits@_W@std@@V?$allocator@_W@2@@std@@@std@@@std@@YAXPAV?$basic_string@_WU?$char_traits@_W@std@@V?$allocator@_W@2@@0@0AAV?$allocator@V?$basic_string@_WU?$char_traits@_W@std@@V?$allocator@_W@2@@std@@@0@@Z
	??1boundsheet_t@xlslib_core@@UAE@XZ
	??$_Pop_heap@PAPAVCOleProp@xlslib_core@@P6A_NPBV12@0@Z@std@@YAXPAPAVCOleProp@xlslib_core@@0P6A_NPBV12@1@Z@Z
	?_Destroy@?$vector@V?$basic_string@_WU?$char_traits@_W@std@@V?$allocator@_W@2@@std@@V?$allocator@V?$basic_string@_WU?$char_traits@_W@std@@V?$allocator@_W@2@@std@@@2@@std@@IAEXPAV?$basic_string@_WU?$char_traits@_W@std@@V?$allocator@_W@2@@2@0@Z
	??0?$_Pair_base@V?$_Tree_const_iterator@V?$_Tree_val@V?$_Tset_traits@U?$pair@PAVxf_t@xlslib_core@@UborderedXft@2@@std@@VxfSorter@xlslib_core@@V?$allocator@U?$pair@PAVxf_t@xlslib_core@@UborderedXft@2@@std@@@2@$0A@@std@@@std@@@std@@_N@std@@QAE@XZ
	?max_size@?$allocator@N@std@@QBEIXZ
	??0?$_Pair_base@V?$_Tree_const_iterator@V?$_Tree_val@V?$_Tset_traits@PAVrowheight_t@xlslib_core@@Vrowheightsort@2@V?$allocator@PAVrowheight_t@xlslib_core@@@std@@$0A@@std@@@std@@@std@@_N@std@@QAE@$$QAV?$_Tree_const_iterator@V?$_Tree_val@V?$_Tset_traits@PAVrowheight_t@xlslib_core@@Vrowheightsort@2@V?$allocator@PAVrowheight_t@xlslib_core@@@std@@$0A@@std@@@std@@@1@$$QA_N@Z
	?allocate@?$allocator@V?$basic_string@DU?$char_traits@D@std@@V?$allocator@D@2@@std@@@std@@QAEPAV?$basic_string@DU?$char_traits@D@std@@V?$allocator@D@2@@2@I@Z
	??1CUnitStore@xlslib_core@@QAE@XZ
	?allocate@?$allocator@_W@std@@QAEPA_WI@Z
	?max_size@?$allocator@PAV?$basic_string@DU?$char_traits@D@std@@V?$allocator@D@2@@std@@@std@@QBEIXZ
	??$_Construct@V?$basic_string@DU?$char_traits@D@std@@V?$allocator@D@2@@std@@ABV12@@std@@YAXPAV?$basic_string@DU?$char_traits@D@std@@V?$allocator@D@2@@0@ABV10@@Z
	?reserve@?$vector@PAVformat_t@xlslib_core@@V?$allocator@PAVformat_t@xlslib_core@@@std@@@std@@QAEXI@Z
	??$_Cons_val@V?$allocator@V?$basic_string@DU?$char_traits@D@std@@V?$allocator@D@2@@std@@@std@@V?$basic_string@DU?$char_traits@D@std@@V?$allocator@D@2@@2@ABV32@@std@@YAXAAV?$allocator@V?$basic_string@DU?$char_traits@D@std@@V?$allocator@D@2@@std@@@0@PAV?$basic_string@DU?$char_traits@D@std@@V?$allocator@D@2@@0@ABV20@@Z
	?push_back@?$vector@PAVCUnit@xlslib_core@@V?$allocator@PAVCUnit@xlslib_core@@@std@@@std@@QAEXABQAVCUnit@xlslib_core@@@Z
	?setColor@colors_t@xlslib_core@@QAE_NEEEE@Z
	??$_Cons_val@V?$allocator@V?$basic_string@_WU?$char_traits@_W@std@@V?$allocator@_W@2@@std@@@std@@V?$basic_string@_WU?$char_traits@_W@std@@V?$allocator@_W@2@@2@ABV32@@std@@YAXAAV?$allocator@V?$basic_string@_WU?$char_traits@_W@std@@V?$allocator@_W@2@@std@@@0@PAV?$basic_string@_WU?$char_traits@_W@std@@V?$allocator@_W@2@@0@ABV20@@Z
	??$_Construct@V?$basic_string@_WU?$char_traits@_W@std@@V?$allocator@_W@2@@std@@ABV12@@std@@YAXPAV?$basic_string@_WU?$char_traits@_W@std@@V?$allocator@_W@2@@0@ABV10@@Z
	??1z_ary_func_node_t@xlslib_core@@UAE@XZ
	??$_Umove@PAN@?$vector@NV?$allocator@N@std@@@std@@IAEPANPAN00@Z
	?_Destroy@?$vector@PAVboundsheet_t@xlslib_core@@V?$allocator@PAVboundsheet_t@xlslib_core@@@std@@@std@@IAEXPAPAVboundsheet_t@xlslib_core@@0@Z
	??$_Allocate@N@std@@YAPANIPAN@Z
	??$_Fputc@D@std@@YA_NDPAU_iobuf@@@Z
	??$_Allocate@V?$basic_string@_WU?$char_traits@_W@std@@V?$allocator@_W@2@@std@@@std@@YAPAV?$basic_string@_WU?$char_traits@_W@std@@V?$allocator@_W@2@@0@IPAV10@@Z
	?_Myval@?$_Tree_val@V?$_Tset_traits@PAVcell_t@xlslib_core@@Vinsertsort@2@V?$allocator@PAVcell_t@xlslib_core@@@std@@$0A@@std@@@std@@SAAAPAVcell_t@xlslib_core@@PAU_Node@?$_Tree_nod@V?$_Tset_traits@PAVcell_t@xlslib_core@@Vinsertsort@2@V?$allocator@PAVcell_t@xlslib_core@@@std@@$0A@@std@@@2@@Z
	?MakeCLabel@CDataStorage@xlslib_core@@QAEPAVCLabel@2@ABVlabel_t@2@@Z
	?SetBorderColor@xf_t@xlslib_core@@QAEXW4border_side_t@2@W4color_name_t@2@@Z
	?property2summary@xlslib_core@@3QBHB
	??$_Allocate@VCUnitStore@xlslib_core@@@std@@YAPAVCUnitStore@xlslib_core@@IPAV12@@Z
	?MakeCDateMode@CDataStorage@xlslib_core@@QAEPAVCDateMode@2@XZ
	??1float_value_node_t@xlslib_core@@UAE@XZ
	?construct@?$allocator@V?$basic_string@DU?$char_traits@D@std@@V?$allocator@D@2@@std@@@std@@QAEXPAV?$basic_string@DU?$char_traits@D@std@@V?$allocator@D@2@@2@ABV32@@Z
	??$construct@AAV?$basic_string@DU?$char_traits@D@std@@V?$allocator@D@2@@std@@@?$allocator@V?$basic_string@DU?$char_traits@D@std@@V?$allocator@D@2@@std@@@std@@QAEXPAV?$basic_string@DU?$char_traits@D@std@@V?$allocator@D@2@@1@AAV21@@Z
	??0HyperLink@xlslib_core@@QAE@XZ
	??$_Cons_val@V?$allocator@N@std@@NAAN@std@@YAXAAV?$allocator@N@0@PANAAN@Z
	??8?$_Tree_const_iterator@V?$_Tree_val@V?$_Tset_traits@PAVHPSFitem@xlslib_core@@Vinsertsort2@2@V?$allocator@PAVHPSFitem@xlslib_core@@@std@@$0A@@std@@@std@@@std@@QBE_NABV01@@Z
	?size@?$vector@PAVrange@xlslib_core@@V?$allocator@PAVrange@xlslib_core@@@std@@@std@@QBEIXZ
	??$_Construct@NABN@std@@YAXPANABN@Z
	??D?$_Vector_const_iterator@V?$_Vector_val@PAUHyperLink@xlslib_core@@V?$allocator@PAUHyperLink@xlslib_core@@@std@@@std@@@std@@QBEABQAUHyperLink@xlslib_core@@XZ
	??$construct@AAN@?$allocator@N@std@@QAEXPANAAN@Z
	??$_Uninitialized_move@PAV?$basic_string@DU?$char_traits@D@std@@V?$allocator@D@2@@std@@PAV12@V?$allocator@V?$basic_string@DU?$char_traits@D@std@@V?$allocator@D@2@@std@@@2@@std@@YAPAV?$basic_string@DU?$char_traits@D@std@@V?$allocator@D@2@@0@PAV10@00AAV?$allocator@V?$basic_string@DU?$char_traits@D@std@@V?$allocator@D@2@@std@@@0@@Z
	??1number_t@xlslib_core@@EAE@XZ
	??$_Uninitialized_move@PAV?$basic_string@_WU?$char_traits@_W@std@@V?$allocator@_W@2@@std@@PAV12@V?$allocator@V?$basic_string@_WU?$char_traits@_W@std@@V?$allocator@_W@2@@std@@@2@@std@@YAPAV?$basic_string@_WU?$char_traits@_W@std@@V?$allocator@_W@2@@0@PAV10@00AAV?$allocator@V?$basic_string@_WU?$char_traits@_W@std@@V?$allocator@_W@2@@std@@@0@@Z
	??$_Uninit_move@NNN@std@@YAPANPAN00AAV?$allocator@N@0@0U_Scalar_ptr_iterator_tag@0@@Z
	?UnMarkUsed@font_t@xlslib_core@@QAEXXZ
	?construct@?$allocator@V?$basic_string@_WU?$char_traits@_W@std@@V?$allocator@_W@2@@std@@@std@@QAEXPAV?$basic_string@_WU?$char_traits@_W@std@@V?$allocator@_W@2@@2@$$QAV32@@Z
	??$_Cons_val@V?$allocator@V?$basic_string@_WU?$char_traits@_W@std@@V?$allocator@_W@2@@std@@@std@@V?$basic_string@_WU?$char_traits@_W@std@@V?$allocator@_W@2@@2@V32@@std@@YAXAAV?$allocator@V?$basic_string@_WU?$char_traits@_W@std@@V?$allocator@_W@2@@std@@@0@PAV?$basic_string@_WU?$char_traits@_W@std@@V?$allocator@_W@2@@0@$$QAV20@@Z
	??D?$_String_const_iterator@DU?$char_traits@D@std@@V?$allocator@D@2@@std@@QBEABDXZ
	?SetModifiedDays@COleProp@xlslib_core@@QAEXH@Z
	?_Reserve@?$vector@PAUDataValidation@xlslib_core@@V?$allocator@PAUDataValidation@xlslib_core@@@std@@@std@@IAEXI@Z
	?destroy@?$allocator@V?$basic_string@DU?$char_traits@D@std@@V?$allocator@D@2@@std@@@std@@QAEXPAV?$basic_string@DU?$char_traits@D@std@@V?$allocator@D@2@@2@@Z
	??$_Cons_val@V?$allocator@V?$basic_string@DU?$char_traits@D@std@@V?$allocator@D@2@@std@@@std@@V?$basic_string@DU?$char_traits@D@std@@V?$allocator@D@2@@2@V32@@std@@YAXAAV?$allocator@V?$basic_string@DU?$char_traits@D@std@@V?$allocator@D@2@@std@@@0@PAV?$basic_string@DU?$char_traits@D@std@@V?$allocator@D@2@@0@$$QAV20@@Z
	??1CColInfo@xlslib_core@@EAE@XZ
	?UnMarkUsed@xf_t@xlslib_core@@QAEXXZ
	?erase@?$vector@PAUDataValidation@xlslib_core@@V?$allocator@PAUDataValidation@xlslib_core@@@std@@@std@@QAE?AV?$_Vector_iterator@V?$_Vector_val@PAUDataValidation@xlslib_core@@V?$allocator@PAUDataValidation@xlslib_core@@@std@@@std@@@2@V?$_Vector_const_iterator@V?$_Vector_val@PAUDataValidation@xlslib_core@@V?$allocator@PAUDataValidation@xlslib_core@@@std@@@std@@@2@0@Z
	??0?$basic_string@_WU?$char_traits@_W@std@@V?$allocator@_W@2@@std@@QAE@$$QAV01@@Z
	??1n_ary_func_node_t@xlslib_core@@UAE@XZ
	?fontcolor@cell_t@xlslib_core@@QAEXW4color_name_t@2@@Z
	??0?$_Vector_val@PAVxf_t@xlslib_core@@V?$allocator@PAVxf_t@xlslib_core@@@std@@@std@@QAE@V?$allocator@PAVxf_t@xlslib_core@@@1@@Z
	?fontDup@font_t@xlslib_core@@SAPAV12@PBV12@@Z
	?GetIndex@xf_t@xlslib_core@@QBEGXZ
	xlsXformatSetFormat
	??0cell_t@xlslib_core@@IAE@AAVCGlobalRecords@1@IIPAVxf_t@1@@Z
	?MakeCRow@CDataStorage@xlslib_core@@QAEPAVCRow@2@IIIGPBVxf_t@2@@Z
	??0?$_Tree@V?$_Tset_traits@PAVrowheight_t@xlslib_core@@Vrowheightsort@2@V?$allocator@PAVrowheight_t@xlslib_core@@@std@@$0A@@std@@@std@@QAE@ABVrowheightsort@xlslib_core@@ABV?$allocator@PAVrowheight_t@xlslib_core@@@1@@Z
	xlsCellGetXFIndex
	??0CPalette@xlslib_core@@IAE@AAVCDataStorage@1@PBUcolor_entry_t@1@@Z
	?erase@?$vector@PAUstyle_t@xlslib_core@@V?$allocator@PAUstyle_t@xlslib_core@@@std@@@std@@QAE?AV?$_Vector_iterator@V?$_Vector_val@PAUstyle_t@xlslib_core@@V?$allocator@PAUstyle_t@xlslib_core@@@std@@@std@@@2@V?$_Vector_const_iterator@V?$_Vector_val@PAUstyle_t@xlslib_core@@V?$allocator@PAUstyle_t@xlslib_core@@@std@@@std@@@2@0@Z
	?GetXFIndex@cell_t@xlslib_core@@QBEGXZ
	?set_xf_common@cell_t@xlslib_core@@AAEXXZ
	?bordercolor@cell_t@xlslib_core@@QAEXW4border_side_t@2@W4color_name_t@2@@Z
	??0CColInfo@xlslib_core@@IAE@AAVCDataStorage@1@PBUcolinfo_t@1@@Z
	?font@cell_t@xlslib_core@@QAEXPAVfont_t@2@@Z
	??$_Ptr_cat@PAVworksheet@xlslib_core@@PAV12@@std@@YA?AU_Scalar_ptr_iterator_tag@0@PAPAVworksheet@xlslib_core@@0@Z
	?format@cell_t@xlslib_core@@QAEXW4format_number_t@2@@Z
	?valign@cell_t@xlslib_core@@QAEXW4valign_option_t@2@@Z
	?MakeCNote@CDataStorage@xlslib_core@@QAEPAVCNote@2@ABVnote_t@2@@Z
	??0?$_Vector_val@PAUstyle_t@xlslib_core@@V?$allocator@PAUstyle_t@xlslib_core@@@std@@@std@@QAE@V?$allocator@PAUstyle_t@xlslib_core@@@1@@Z
	?orientation@cell_t@xlslib_core@@QAEXW4txtori_option_t@2@@Z
	?fillfgcolor@cell_t@xlslib_core@@QAEXW4color_name_t@2@@Z
	?fillbgcolor@cell_t@xlslib_core@@QAEXW4color_name_t@2@@Z
	?reserve@?$vector@PAVworksheet@xlslib_core@@V?$allocator@PAVworksheet@xlslib_core@@@std@@@std@@QAEXI@Z
	??0CUnitStore@xlslib_core@@QAE@ABV01@@Z
	??$_Move@PAVCUnitStore@xlslib_core@@PAV12@@std@@YAPAVCUnitStore@xlslib_core@@PAV12@00@Z
	??9?$_Vector_const_iterator@V?$_Vector_val@PAUstyle_t@xlslib_core@@V?$allocator@PAUstyle_t@xlslib_core@@@std@@@std@@@std@@QBE_NABV01@@Z
	?fillbgcolor@cell_t@xlslib_core@@QAEXE@Z
	?wrap@cell_t@xlslib_core@@QAEX_N@Z
	?fontname@cell_t@xlslib_core@@QAEXABV?$basic_string@DU?$char_traits@D@std@@V?$allocator@D@2@@std@@@Z
	??$_Ptr_cat@PAVformula_t@xlslib_core@@PAV12@@std@@YA?AU_Scalar_ptr_iterator_tag@0@PAPAVformula_t@xlslib_core@@0@Z
	?fontunderline@cell_t@xlslib_core@@QAEXW4underline_option_t@2@@Z
	?GetSize@error_value_node_t@xlslib_core@@UBEI_N@Z
	?fontscript@cell_t@xlslib_core@@QAEXW4script_option_t@2@@Z
	?fontitalic@cell_t@xlslib_core@@QAEX_N@Z
	?erase@?$_Tree@V?$_Tset_traits@U?$pair@PAVxf_t@xlslib_core@@UborderedXft@2@@std@@VxfSorter@xlslib_core@@V?$allocator@U?$pair@PAVxf_t@xlslib_core@@UborderedXft@2@@std@@@2@$0A@@std@@@std@@QAE?AV?$_Tree_const_iterator@V?$_Tree_val@V?$_Tset_traits@U?$pair@PAVxf_t@xlslib_core@@UborderedXft@2@@std@@VxfSorter@xlslib_core@@V?$allocator@U?$pair@PAVxf_t@xlslib_core@@UborderedXft@2@@std@@@2@$0A@@std@@@std@@@2@V32@@Z
	?fontoutline@cell_t@xlslib_core@@QAEX_N@Z
	?MakeCUnit@CDataStorage@xlslib_core@@QAEPAVCUnit@2@XZ
	??$_Cons_val@V?$allocator@PAVformat_t@xlslib_core@@@std@@PAVformat_t@xlslib_core@@ABQAV34@@std@@YAXAAV?$allocator@PAVformat_t@xlslib_core@@@0@PAPAVformat_t@xlslib_core@@ABQAV23@@Z
	xlsCellSetXF
	?GetData@colors_t@xlslib_core@@QBEPAVCUnit@2@AAVCDataStorage@2@@Z
	?_Xlen@?$vector@PAUHyperLink@xlslib_core@@V?$allocator@PAUHyperLink@xlslib_core@@@std@@@std@@IBEXXZ
	?SetDataSize@CUnitStore@xlslib_core@@QAEXI@Z
	??0?$allocator@VCUnitStore@xlslib_core@@@std@@QAE@XZ
	??1colors_t@xlslib_core@@QAE@XZ
	?length@?$char_traits@G@std@@SAIPBG@Z
	?copy@?$char_traits@_W@std@@SAPA_WPA_WPB_WI@Z
	?SetAlreadyContinued@CUnit@xlslib_core@@IAEX_N@Z
	?GetDataSize@CUnitStore@xlslib_core@@QBEIXZ
	?boolean@expression_node_factory_t@xlslib_core@@QAEPAVboolean_value_node_t@2@_N@Z
	?MakeSticky@CUnitStore@xlslib_core@@QAEXXZ
	?GetStrLabel@label_t@xlslib_core@@QBEABV?$basic_string@GU?$char_traits@G@std@@V?$allocator@G@2@@std@@XZ
	??1CErr@xlslib_core@@EAE@XZ
	?AddValue8@CUnit@xlslib_core@@QAEDE@Z
	?_Color@?$_Tree_val@V?$_Tset_traits@U?$pair@PAVxf_t@xlslib_core@@UborderedXft@2@@std@@VxfSorter@xlslib_core@@V?$allocator@U?$pair@PAVxf_t@xlslib_core@@UborderedXft@2@@std@@@2@$0A@@std@@@std@@SAAADPAU_Node@?$_Tree_nod@V?$_Tset_traits@U?$pair@PAVxf_t@xlslib_core@@UborderedXft@2@@std@@VxfSorter@xlslib_core@@V?$allocator@U?$pair@PAVxf_t@xlslib_core@@UborderedXft@2@@std@@@2@$0A@@std@@@2@@Z
	??0CDataStorage@xlslib_core@@QAE@I@Z
	?clear@?$vector@PAUstyle_t@xlslib_core@@V?$allocator@PAUstyle_t@xlslib_core@@@std@@@std@@QAEXXZ
	??YCDataStorage@xlslib_core@@QAEXPAVCUnit@1@@Z
	?_Xlen@?$vector@PAVrange@xlslib_core@@V?$allocator@PAVrange@xlslib_core@@@std@@@std@@IBEXXZ
	?GetDataSize@CDataStorage@xlslib_core@@QBEIXZ
	?GetWorksheet@cell_t@xlslib_core@@QBEPAVworksheet@2@XZ
	??1?$_Vector_val@PAVformula_t@xlslib_core@@V?$allocator@PAVformula_t@xlslib_core@@@std@@@std@@QAE@XZ
	??ACDataStorage@xlslib_core@@QAEAAVCUnitStore@1@H@Z
	?DumpData@function_basenode_t@xlslib_core@@UBEDAAVformula_t@2@_N@Z
	?FlushLowerLevelUnits@CDataStorage@xlslib_core@@QAEXPBVCUnit@2@@Z
	?char2str16@CGlobalRecords@xlslib_core@@QAEXABV?$basic_string@DU?$char_traits@D@std@@V?$allocator@D@2@@std@@AAV?$basic_string@GU?$char_traits@G@std@@V?$allocator@G@2@@4@@Z
	?MakeCWindow1@CDataStorage@xlslib_core@@QAEPAVCWindow1@2@ABVwindow1@2@@Z
	?_Xlen@?$vector@VCUnitStore@xlslib_core@@V?$allocator@VCUnitStore@xlslib_core@@@std@@@std@@IBEXXZ
	?MakeCFormat@CDataStorage@xlslib_core@@QAEPAVCFormat@2@PBVformat_t@2@@Z
	??0cellarea_deref_node_t@xlslib_core@@QAE@AAVCGlobalRecords@1@ABVcell_t@1@1PBVworksheet@1@W4cell_addr_mode_t@1@W4cell_op_class_t@1@@Z
	?GetChild@binary_op_node_t@xlslib_core@@UBEPAVexpression_node_t@2@G@Z
	?MakeCContinue@CDataStorage@xlslib_core@@QAEPAVCContinue@2@PAVCUnit@2@PBEI@Z
	?MakeCErr@CDataStorage@xlslib_core@@QAEPAVCErr@2@ABVerr_t@2@@Z
	?MakeCFormula@CDataStorage@xlslib_core@@QAEPAVCFormula@2@ABVformula_cell_t@2@@Z
	?MakeCIndex@CDataStorage@xlslib_core@@QAEPAVCIndex@2@II@Z
	?_Tidy@?$vector@PAVfont_t@xlslib_core@@V?$allocator@PAVfont_t@xlslib_core@@@std@@@std@@IAEXXZ
	?MakeCExtFormat@CDataStorage@xlslib_core@@QAEPAVCExtFormat@2@PBVxf_t@2@@Z
	?SetNumRanges@CMergedCells@xlslib_core@@QAEXI@Z
	?MakeCPalette@CDataStorage@xlslib_core@@QAEPAVCPalette@2@PBUcolor_entry_t@2@@Z
	?MakeCColInfo@CDataStorage@xlslib_core@@QAEPAVCColInfo@2@PBUcolinfo_t@2@@Z
	?MakeCBlank@CDataStorage@xlslib_core@@QAEPAVCBlank@2@ABVblank_t@2@@Z
	?MakeCCodePage@CDataStorage@xlslib_core@@QAEPAVCCodePage@2@G@Z
	?MakeCDBCell@CDataStorage@xlslib_core@@QAEPAVCDBCell@2@I@Z
	??0?$vector@PAUstyle_t@xlslib_core@@V?$allocator@PAUstyle_t@xlslib_core@@@std@@@std@@QAE@XZ
	??E?$_Vector_iterator@V?$_Vector_val@VCUnitStore@xlslib_core@@V?$allocator@VCUnitStore@xlslib_core@@@std@@@std@@@std@@QAEAAV01@XZ
	?_Rrotate@?$_Tree@V?$_Tset_traits@PAUcolinfo_t@xlslib_core@@Vcolinfosort@2@V?$allocator@PAUcolinfo_t@xlslib_core@@@std@@$0A@@std@@@std@@IAEXPAU_Node@?$_Tree_nod@V?$_Tset_traits@PAUcolinfo_t@xlslib_core@@Vcolinfosort@2@V?$allocator@PAUcolinfo_t@xlslib_core@@@std@@$0A@@std@@@2@@Z
	?MakeCExternSheet@CDataStorage@xlslib_core@@QAEPAVCUnit@2@ABV?$vector@PAVboundsheet_t@xlslib_core@@V?$allocator@PAVboundsheet_t@xlslib_core@@@std@@@std@@@Z
	?MakeSST@CDataStorage@xlslib_core@@QAEPAVCUnit@2@ABV?$vector@PBVlabel_t@xlslib_core@@V?$allocator@PBVlabel_t@xlslib_core@@@std@@@std@@@Z
	??0CUnitStore@xlslib_core@@QAE@XZ
	?Prepare@CUnitStore@xlslib_core@@QAEDI@Z
	??D?$_Vector_const_iterator@V?$_Vector_val@Urowblocksize_t@xlslib_core@@V?$allocator@Urowblocksize_t@xlslib_core@@@std@@@std@@@std@@QBEABUrowblocksize_t@xlslib_core@@XZ
	?reserve@?$vector@PAVrange_t@xlslib_core@@V?$allocator@PAVrange_t@xlslib_core@@@std@@@std@@QAEXI@Z
	?Resize@CUnitStore@xlslib_core@@QAEDI@Z
	??$_Unchecked@V?$_Vector_val@PAVCOleProp@xlslib_core@@V?$allocator@PAVCOleProp@xlslib_core@@@std@@@std@@@std@@YAPAPAVCOleProp@xlslib_core@@V?$_Vector_iterator@V?$_Vector_val@PAVCOleProp@xlslib_core@@V?$allocator@PAVCOleProp@xlslib_core@@@std@@@std@@@0@@Z
	?assign@?$basic_string@GU?$char_traits@G@std@@V?$allocator@G@2@@std@@QAEAAV12@PBG@Z
	??$_Unguarded_partition@PAPAVCOleProp@xlslib_core@@P6A_NPBV12@0@Z@std@@YA?AU?$pair@PAPAVCOleProp@xlslib_core@@PAPAV12@@0@PAPAVCOleProp@xlslib_core@@0P6A_NPBV23@1@Z@Z
	?_Tidy@?$vector@VCUnitStore@xlslib_core@@V?$allocator@VCUnitStore@xlslib_core@@@std@@@std@@IAEXXZ
	??1?$vector@VCUnitStore@xlslib_core@@V?$allocator@VCUnitStore@xlslib_core@@@std@@@std@@QAE@XZ
	??1function_basenode_t@xlslib_core@@UAE@XZ
	??$make_heap@PAPAVCOleProp@xlslib_core@@P6A_NPBV12@0@Z@std@@YAXPAPAVCOleProp@xlslib_core@@0P6A_NPBV12@1@Z@Z
	?resize@?$vector@VCUnitStore@xlslib_core@@V?$allocator@VCUnitStore@xlslib_core@@@std@@@std@@QAEXI@Z
	?GetResultEstimate@cellarea_deref_node_t@xlslib_core@@UBEXAAVestimated_formula_result_t@2@@Z
	?resize@?$vector@PAVCUnit@xlslib_core@@V?$allocator@PAVCUnit@xlslib_core@@@std@@@std@@QAEXI@Z
	??$_Allocate@PAVboundsheet_t@xlslib_core@@@std@@YAPAPAVboundsheet_t@xlslib_core@@IPAPAV12@@Z
	?assign@?$basic_string@GU?$char_traits@G@std@@V?$allocator@G@2@@std@@QAEAAV12@ABV12@II@Z
	?erase@?$vector@VCUnitStore@xlslib_core@@V?$allocator@VCUnitStore@xlslib_core@@@std@@@std@@QAE?AV?$_Vector_iterator@V?$_Vector_val@VCUnitStore@xlslib_core@@V?$allocator@VCUnitStore@xlslib_core@@@std@@@std@@@2@V?$_Vector_const_iterator@V?$_Vector_val@VCUnitStore@xlslib_core@@V?$allocator@VCUnitStore@xlslib_core@@@std@@@std@@@2@0@Z
	??Y?$_Vector_const_iterator@V?$_Vector_val@PAVCUnit@xlslib_core@@V?$allocator@PAVCUnit@xlslib_core@@@std@@@std@@@std@@QAEAAV01@H@Z
	?SetCreatedDays@COleProp@xlslib_core@@QAEXH@Z
	?assign@?$basic_string@GU?$char_traits@G@std@@V?$allocator@G@2@@std@@QAEAAV12@PBGI@Z
	?_Eos@?$basic_string@_WU?$char_traits@_W@std@@V?$allocator@_W@2@@std@@QAEXI@Z
	?_Lmost@?$_Tree@V?$_Tset_traits@PAVrowheight_t@xlslib_core@@Vrowheightsort@2@V?$allocator@PAVrowheight_t@xlslib_core@@@std@@$0A@@std@@@std@@IBEAAPAU_Node@?$_Tree_nod@V?$_Tset_traits@PAVrowheight_t@xlslib_core@@Vrowheightsort@2@V?$allocator@PAVrowheight_t@xlslib_core@@@std@@$0A@@std@@@2@XZ
	??$construct@AAPAVrowheight_t@xlslib_core@@@?$allocator@PAVrowheight_t@xlslib_core@@@std@@QAEXPAPAVrowheight_t@xlslib_core@@AAPAV23@@Z
	?_Myptr@?$basic_string@GU?$char_traits@G@std@@V?$allocator@G@2@@std@@QAEPAGXZ
	?reserve@?$vector@PAUstyle_t@xlslib_core@@V?$allocator@PAUstyle_t@xlslib_core@@@std@@@std@@QAEXI@Z
	??Y?$_Vector_iterator@V?$_Vector_val@VCUnitStore@xlslib_core@@V?$allocator@VCUnitStore@xlslib_core@@@std@@@std@@@std@@QAEAAV01@H@Z
	?SetBorder@CExtFormat@xlslib_core@@QAEXW4border_side_t@2@GG@Z
	?max_size@?$basic_string@GU?$char_traits@G@std@@V?$allocator@G@2@@std@@QBEIXZ
	?_Copy@?$basic_string@_WU?$char_traits@_W@std@@V?$allocator@_W@2@@std@@QAEXII@Z
	?_Inside@?$basic_string@GU?$char_traits@G@std@@V?$allocator@G@2@@std@@QAE_NPBG@Z
	?fontname@range@xlslib_core@@UAEXABV?$basic_string@DU?$char_traits@D@std@@V?$allocator@D@2@@std@@@Z
	??$emplace@VCUnitStore@xlslib_core@@@?$vector@VCUnitStore@xlslib_core@@V?$allocator@VCUnitStore@xlslib_core@@@std@@@std@@QAE?AV?$_Vector_iterator@V?$_Vector_val@VCUnitStore@xlslib_core@@V?$allocator@VCUnitStore@xlslib_core@@@std@@@std@@@1@V?$_Vector_const_iterator@V?$_Vector_val@VCUnitStore@xlslib_core@@V?$allocator@VCUnitStore@xlslib_core@@@std@@@std@@@1@$$QAVCUnitStore@xlslib_core@@@Z
	??$insert@VCUnitStore@xlslib_core@@@?$vector@VCUnitStore@xlslib_core@@V?$allocator@VCUnitStore@xlslib_core@@@std@@@std@@QAE?AV?$_Vector_iterator@V?$_Vector_val@VCUnitStore@xlslib_core@@V?$allocator@VCUnitStore@xlslib_core@@@std@@@std@@@1@V?$_Vector_const_iterator@V?$_Vector_val@VCUnitStore@xlslib_core@@V?$allocator@VCUnitStore@xlslib_core@@@std@@@std@@@1@$$QAVCUnitStore@xlslib_core@@@Z
	??$_Umove@PAVCUnitStore@xlslib_core@@@?$vector@VCUnitStore@xlslib_core@@V?$allocator@VCUnitStore@xlslib_core@@@std@@@std@@IAEPAVCUnitStore@xlslib_core@@PAV23@00@Z
	??$_Uninitialized_default_fill_n@PAVCUnitStore@xlslib_core@@IV12@V?$allocator@VCUnitStore@xlslib_core@@@std@@@std@@YAXPAVCUnitStore@xlslib_core@@IPBV12@AAV?$allocator@VCUnitStore@xlslib_core@@@0@@Z
	?format@workbook@xlslib_core@@QAEPAVformat_t@2@ABV?$basic_string@_WU?$char_traits@_W@std@@V?$allocator@_W@2@@std@@@Z
	??$_Destroy_range@V?$allocator@VCUnitStore@xlslib_core@@@std@@@std@@YAXPAVCUnitStore@xlslib_core@@0AAV?$allocator@VCUnitStore@xlslib_core@@@0@@Z
	??$_Allocate@PAVrange_t@xlslib_core@@@std@@YAPAPAVrange_t@xlslib_core@@IPAPAV12@@Z
	??0?$_Tset_traits@PAVcell_t@xlslib_core@@Vinsertsort@2@V?$allocator@PAVcell_t@xlslib_core@@@std@@$0A@@std@@QAE@Vinsertsort@xlslib_core@@@Z
	??$_Allocate@PAVfont_t@xlslib_core@@@std@@YAPAPAVfont_t@xlslib_core@@IPAPAV12@@Z
	??$_Allocate@PBVlabel_t@xlslib_core@@@std@@YAPAPBVlabel_t@xlslib_core@@IPAPBV12@@Z
	??$_Allocate@PAVrange@xlslib_core@@@std@@YAPAPAVrange@xlslib_core@@IPAPAV12@@Z
	??$_Allocate@PAVformat_t@xlslib_core@@@std@@YAPAPAVformat_t@xlslib_core@@IPAPAV12@@Z
	??E?$_Vector_iterator@V?$_Vector_val@PAVboundsheet_t@xlslib_core@@V?$allocator@PAVboundsheet_t@xlslib_core@@@std@@@std@@@std@@QAEAAV01@XZ
	??$_Allocate@I@std@@YAPAIIPAI@Z
	??$_Allocate@PAUDataValidation@xlslib_core@@@std@@YAPAPAUDataValidation@xlslib_core@@IPAPAU12@@Z
	??$_Cons_val@V?$allocator@PAVworksheet@xlslib_core@@@std@@PAVworksheet@xlslib_core@@AAPAV34@@std@@YAXAAV?$allocator@PAVworksheet@xlslib_core@@@0@PAPAVworksheet@xlslib_core@@AAPAV23@@Z
	??0?$_String_const_iterator@DU?$char_traits@D@std@@V?$allocator@D@2@@std@@QAE@PBDPBU_Container_base0@1@@Z
	??E?$_Vector_const_iterator@V?$_Vector_val@PAUDataValidation@xlslib_core@@V?$allocator@PAUDataValidation@xlslib_core@@@std@@@std@@@std@@QAEAAV01@XZ
	??$_Allocate@PAVworksheet@xlslib_core@@@std@@YAPAPAVworksheet@xlslib_core@@IPAPAV12@@Z
	??$_Allocate@PAUHyperLink@xlslib_core@@@std@@YAPAPAUHyperLink@xlslib_core@@IPAPAU12@@Z
	??E?$_String_const_iterator@_WU?$char_traits@_W@std@@V?$allocator@_W@2@@std@@QAEAAV01@XZ
	??$_Allocate@PAVxf_t@xlslib_core@@@std@@YAPAPAVxf_t@xlslib_core@@IPAPAV12@@Z
	??$_Allocate@PAVCOleProp@xlslib_core@@@std@@YAPAPAVCOleProp@xlslib_core@@IPAPAV12@@Z
	??$_Allocate@PAVCUnit@xlslib_core@@@std@@YAPAPAVCUnit@xlslib_core@@IPAPAV12@@Z
	??$_Move@PAPAVformat_t@xlslib_core@@PAPAV12@@std@@YAPAPAVformat_t@xlslib_core@@PAPAV12@00@Z
	??$_Allocate@_W@std@@YAPA_WIPA_W@Z
	??$_Cons_val@V?$allocator@PAVboundsheet_t@xlslib_core@@@std@@PAVboundsheet_t@xlslib_core@@ABQAV34@@std@@YAXAAV?$allocator@PAVboundsheet_t@xlslib_core@@@0@PAPAVboundsheet_t@xlslib_core@@ABQAV23@@Z
	??0CEof@xlslib_core@@IAE@AAVCDataStorage@1@@Z
	??$_Allocate@G@std@@YAPAGIPAG@Z
	??$forward@PBVlabel_t@xlslib_core@@@std@@YA$$QAPBVlabel_t@xlslib_core@@AAPBV12@@Z
	??$_Uninitialized_move@PAVCUnitStore@xlslib_core@@PAV12@V?$allocator@VCUnitStore@xlslib_core@@@std@@@std@@YAPAVCUnitStore@xlslib_core@@PAV12@00AAV?$allocator@VCUnitStore@xlslib_core@@@0@@Z
	??$_Uninit_def_fill_n@PAVCUnitStore@xlslib_core@@IV12@V?$allocator@VCUnitStore@xlslib_core@@@std@@V12@@std@@YAXPAVCUnitStore@xlslib_core@@IPBV12@AAV?$allocator@VCUnitStore@xlslib_core@@@0@0U_Nonscalar_ptr_iterator_tag@0@@Z
	??$_Uninitialized_default_fill_n@PAPAVCUnit@xlslib_core@@IPAV12@V?$allocator@PAVCUnit@xlslib_core@@@std@@@std@@YAXPAPAVCUnit@xlslib_core@@IPBQAV12@AAV?$allocator@PAVCUnit@xlslib_core@@@0@@Z
	??$_Uninit_def_fill_n@PAVCUnit@xlslib_core@@IPAV12@PAV12@@std@@YAXPAPAVCUnit@xlslib_core@@IPBQAV12@AAV?$allocator@PAVCUnit@xlslib_core@@@0@0U_Scalar_ptr_iterator_tag@0@@Z
	??$_Move@PAVCUnitStore@xlslib_core@@PAV12@@std@@YAPAVCUnitStore@xlslib_core@@PAV12@00U_Nonscalar_ptr_iterator_tag@0@@Z
	??$_Destroy_range@V?$allocator@VCUnitStore@xlslib_core@@@std@@@std@@YAXPAVCUnitStore@xlslib_core@@0AAV?$allocator@VCUnitStore@xlslib_core@@@0@U_Nonscalar_ptr_iterator_tag@0@@Z
	??$_Buynode@AAPAVcell_t@xlslib_core@@@?$_Tree_val@V?$_Tset_traits@PAVcell_t@xlslib_core@@Vinsertsort@2@V?$allocator@PAVcell_t@xlslib_core@@@std@@$0A@@std@@@std@@QAEPAU_Node@?$_Tree_nod@V?$_Tset_traits@PAVcell_t@xlslib_core@@Vinsertsort@2@V?$allocator@PAVcell_t@xlslib_core@@@std@@$0A@@std@@@1@AAPAVcell_t@xlslib_core@@@Z
	?GetBoundingSheets@CGlobalRecords@xlslib_core@@QAEXAAV?$_Vector_iterator@V?$_Vector_val@PAVboundsheet_t@xlslib_core@@V?$allocator@PAVboundsheet_t@xlslib_core@@@std@@@std@@@std@@@Z
	?emplace_back@?$vector@VCUnitStore@xlslib_core@@V?$allocator@VCUnitStore@xlslib_core@@@std@@@std@@QAEX$$QAVCUnitStore@xlslib_core@@@Z
	??$_Move_backward@PAPAVCOleProp@xlslib_core@@PAPAV12@@std@@YAPAPAVCOleProp@xlslib_core@@PAPAV12@00U_Scalar_ptr_iterator_tag@0@@Z
	??G?$_Vector_iterator@V?$_Vector_val@VCUnitStore@xlslib_core@@V?$allocator@VCUnitStore@xlslib_core@@@std@@@std@@@std@@QBE?AV01@H@Z
	?_Rmost@?$_Tree@V?$_Tset_traits@PAVcell_t@xlslib_core@@Vinsertsort@2@V?$allocator@PAVcell_t@xlslib_core@@@std@@$0A@@std@@@std@@IBEAAPAU_Node@?$_Tree_nod@V?$_Tset_traits@PAVcell_t@xlslib_core@@Vinsertsort@2@V?$allocator@PAVcell_t@xlslib_core@@@std@@$0A@@std@@@2@XZ
	??Z?$_Vector_iterator@V?$_Vector_val@VCUnitStore@xlslib_core@@V?$allocator@VCUnitStore@xlslib_core@@@std@@@std@@@std@@QAEAAV01@H@Z
	??$rotate@V?$_Vector_iterator@V?$_Vector_val@VCUnitStore@xlslib_core@@V?$allocator@VCUnitStore@xlslib_core@@@std@@@std@@@std@@@std@@YA?AV?$_Vector_iterator@V?$_Vector_val@VCUnitStore@xlslib_core@@V?$allocator@VCUnitStore@xlslib_core@@@std@@@std@@@0@V10@00@Z
	?push_back@?$vector@PAVfont_t@xlslib_core@@V?$allocator@PAVfont_t@xlslib_core@@@std@@@std@@QAEXABQAVfont_t@xlslib_core@@@Z
	??$_Uninit_move@PAVCUnitStore@xlslib_core@@PAV12@V?$allocator@VCUnitStore@xlslib_core@@@std@@V12@@std@@YAPAVCUnitStore@xlslib_core@@PAV12@00AAV?$allocator@VCUnitStore@xlslib_core@@@0@0U_Nonscalar_ptr_iterator_tag@0@@Z
	??$_Construct@PAVfont_t@xlslib_core@@ABQAV12@@std@@YAXPAPAVfont_t@xlslib_core@@ABQAV12@@Z
	?construct@?$allocator@VCUnitStore@xlslib_core@@@std@@QAEXPAVCUnitStore@xlslib_core@@$$QAV34@@Z
	??$_Cons_val@V?$allocator@VCUnitStore@xlslib_core@@@std@@VCUnitStore@xlslib_core@@V34@@std@@YAXAAV?$allocator@VCUnitStore@xlslib_core@@@0@PAVCUnitStore@xlslib_core@@$$QAV23@@Z
	??$_Fill_n@PAPAVCUnit@xlslib_core@@IPAV12@@std@@YAXPAPAVCUnit@xlslib_core@@IABQAV12@@Z
	?_Erase@?$_Tree@V?$_Tset_traits@PAVHPSFitem@xlslib_core@@Vinsertsort2@2@V?$allocator@PAVHPSFitem@xlslib_core@@@std@@$0A@@std@@@std@@IAEXPAU_Node@?$_Tree_nod@V?$_Tset_traits@PAVHPSFitem@xlslib_core@@Vinsertsort2@2@V?$allocator@PAVHPSFitem@xlslib_core@@@std@@$0A@@std@@@2@@Z
	?destroy@?$allocator@VCUnitStore@xlslib_core@@@std@@QAEXPAVCUnitStore@xlslib_core@@@Z
	??$_Destroy_range@V?$allocator@PAVworksheet@xlslib_core@@@std@@@std@@YAXPAPAVworksheet@xlslib_core@@0AAV?$allocator@PAVworksheet@xlslib_core@@@0@U_Scalar_ptr_iterator_tag@0@@Z
	?Reset@CUnitStore@xlslib_core@@QAEXXZ
	??$_Destroy@VCUnitStore@xlslib_core@@@std@@YAXPAVCUnitStore@xlslib_core@@@Z
	??$_Unchecked@V?$_Vector_val@VCUnitStore@xlslib_core@@V?$allocator@VCUnitStore@xlslib_core@@@std@@@std@@@std@@YAPAVCUnitStore@xlslib_core@@V?$_Vector_iterator@V?$_Vector_val@VCUnitStore@xlslib_core@@V?$allocator@VCUnitStore@xlslib_core@@@std@@@std@@@0@@Z
	??$_Distance@V?$_Tree_const_iterator@V?$_Tree_val@V?$_Tset_traits@PAVcell_t@xlslib_core@@Vinsertsort@2@V?$allocator@PAVcell_t@xlslib_core@@@std@@$0A@@std@@@std@@@std@@I@std@@YAXV?$_Tree_const_iterator@V?$_Tree_val@V?$_Tset_traits@PAVcell_t@xlslib_core@@Vinsertsort@2@V?$allocator@PAVcell_t@xlslib_core@@@std@@$0A@@std@@@std@@@0@0AAI@Z
	??$_Rotate@PAVCUnitStore@xlslib_core@@@std@@YAXPAVCUnitStore@xlslib_core@@00Urandom_access_iterator_tag@0@@Z
	??$distance@V?$_Vector_iterator@V?$_Vector_val@VCUnitStore@xlslib_core@@V?$allocator@VCUnitStore@xlslib_core@@@std@@@std@@@std@@@std@@YAHV?$_Vector_iterator@V?$_Vector_val@VCUnitStore@xlslib_core@@V?$allocator@VCUnitStore@xlslib_core@@@std@@@std@@@0@0@Z
	??0unary_func_node_t@xlslib_core@@QAE@AAVCGlobalRecords@1@W4expr_function_code_t@1@PAVexpression_node_t@1@@Z
	??$_Distance2@V?$_Vector_iterator@V?$_Vector_val@VCUnitStore@xlslib_core@@V?$allocator@VCUnitStore@xlslib_core@@@std@@@std@@@std@@H@std@@YAXV?$_Vector_iterator@V?$_Vector_val@VCUnitStore@xlslib_core@@V?$allocator@VCUnitStore@xlslib_core@@@std@@@std@@@0@0AAHUrandom_access_iterator_tag@0@@Z
	??$advance@V?$_Vector_iterator@V?$_Vector_val@VCUnitStore@xlslib_core@@V?$allocator@VCUnitStore@xlslib_core@@@std@@@std@@@std@@H@std@@YAXAAV?$_Vector_iterator@V?$_Vector_val@VCUnitStore@xlslib_core@@V?$allocator@VCUnitStore@xlslib_core@@@std@@@std@@@0@H@Z
	??$_Advance@V?$_Vector_iterator@V?$_Vector_val@VCUnitStore@xlslib_core@@V?$allocator@VCUnitStore@xlslib_core@@@std@@@std@@@std@@H@std@@YAXAAV?$_Vector_iterator@V?$_Vector_val@VCUnitStore@xlslib_core@@V?$allocator@VCUnitStore@xlslib_core@@@std@@@std@@@0@HUrandom_access_iterator_tag@0@@Z
	??G?$_Vector_iterator@V?$_Vector_val@VCUnitStore@xlslib_core@@V?$allocator@VCUnitStore@xlslib_core@@@std@@@std@@@std@@QBEHABV?$_Vector_const_iterator@V?$_Vector_val@VCUnitStore@xlslib_core@@V?$allocator@VCUnitStore@xlslib_core@@@std@@@std@@@1@@Z
	??G?$_Vector_const_iterator@V?$_Vector_val@VCUnitStore@xlslib_core@@V?$allocator@VCUnitStore@xlslib_core@@@std@@@std@@@std@@QBEHABV01@@Z
	??$iter_swap@PAVCUnitStore@xlslib_core@@PAV12@@std@@YAXPAVCUnitStore@xlslib_core@@0@Z
	??$swap@VCUnitStore@xlslib_core@@@std@@YAXAAVCUnitStore@xlslib_core@@0@Z
	??0?$_Vector_val@PAVformula_t@xlslib_core@@V?$allocator@PAVformula_t@xlslib_core@@@std@@@std@@QAE@V?$allocator@PAVformula_t@xlslib_core@@@1@@Z
	?addItem@hpsf_doc_t@xlslib_core@@QAEXGG@Z
	??0?$_Vector_val@PAVformat_t@xlslib_core@@V?$allocator@PAVformat_t@xlslib_core@@@std@@@std@@QAE@V?$allocator@PAVformat_t@xlslib_core@@@1@@Z
	??4?$basic_string@DU?$char_traits@D@std@@V?$allocator@D@2@@std@@QAEAAV01@$$QAV01@@Z
	?_Orphan_range@?$vector@PBVlabel_t@xlslib_core@@V?$allocator@PBVlabel_t@xlslib_core@@@std@@@std@@IBEXPAPBVlabel_t@xlslib_core@@0@Z
	?addItem@hpsf_doc_t@xlslib_core@@QAEXGABV?$basic_string@DU?$char_traits@D@std@@V?$allocator@D@2@@std@@@Z
	??0CDocSummaryInfo@xlslib_core@@QAE@XZ
	??1CDocSummaryInfo@xlslib_core@@UAE@XZ
	?dec@std@@YAAAVios_base@1@AAV21@@Z
	?property@CDocSummaryInfo@xlslib_core@@QAE_NW4property_t@2@ABV?$basic_string@DU?$char_traits@D@std@@V?$allocator@D@2@@std@@@Z
	?DumpData@CDocSummaryInfo@xlslib_core@@QAEHAAVCDataStorage@2@@Z
	?DumpData@CSummaryInfo@xlslib_core@@QAEHAAVCDataStorage@2@@Z
	??1cell_t@xlslib_core@@MAE@XZ
	??1blank_t@xlslib_core@@EAE@XZ
	??1boolean_t@xlslib_core@@EAE@XZ
	??1err_t@xlslib_core@@EAE@XZ
	?GetSize@boolean_t@xlslib_core@@UBEIXZ
	?GetSize@err_t@xlslib_core@@UBEIXZ
	?GetSize@note_t@xlslib_core@@UBEIXZ
	??0err_t@xlslib_core@@AAE@AAVCGlobalRecords@1@IIW4errcode_t@1@PAVxf_t@1@@Z
	??0formula_cell_t@xlslib_core@@QAE@AAVCGlobalRecords@1@IIPAVexpression_node_t@1@_NPAVxf_t@1@@Z
	?GetData@err_t@xlslib_core@@UBEPAVCUnit@2@AAVCDataStorage@2@@Z
	??0CErr@xlslib_core@@IAE@AAVCDataStorage@1@ABVerr_t@1@@Z
	?_Myval@?$_Tree_val@V?$_Tset_traits@PAVrowheight_t@xlslib_core@@Vrowheightsort@2@V?$allocator@PAVrowheight_t@xlslib_core@@@std@@$0A@@std@@@std@@SAAAPAVrowheight_t@xlslib_core@@PAU_Node@?$_Tree_nod@V?$_Tset_traits@PAVrowheight_t@xlslib_core@@Vrowheightsort@2@V?$allocator@PAVrowheight_t@xlslib_core@@@std@@$0A@@std@@@2@@Z
	??4font_t@xlslib_core@@AAEAAV01@ABV01@@Z
	?_Orphan_range@?$vector@PAVboundsheet_t@xlslib_core@@V?$allocator@PAVboundsheet_t@xlslib_core@@@std@@@std@@IBEXPAPAVboundsheet_t@xlslib_core@@0@Z
	?_Right@?$_Tree_val@V?$_Tset_traits@PAVcell_t@xlslib_core@@Vinsertsort@2@V?$allocator@PAVcell_t@xlslib_core@@@std@@$0A@@std@@@std@@SAAAPAU_Node@?$_Tree_nod@V?$_Tset_traits@PAVcell_t@xlslib_core@@Vinsertsort@2@V?$allocator@PAVcell_t@xlslib_core@@@std@@$0A@@std@@@2@PAU342@@Z
	?end@?$vector@PAVCUnit@xlslib_core@@V?$allocator@PAVCUnit@xlslib_core@@@std@@@std@@QAE?AV?$_Vector_iterator@V?$_Vector_val@PAVCUnit@xlslib_core@@V?$allocator@PAVCUnit@xlslib_core@@@std@@@std@@@2@XZ
	?hex@std@@YAAAVios_base@1@AAV21@@Z
	?GetIndex@format_t@xlslib_core@@QBEGXZ
	??$_Destroy@PAVcell_t@xlslib_core@@@std@@YAXPAPAVcell_t@xlslib_core@@@Z
	??0xf_init_t@xlslib_core@@QAE@XZ
	??0xf_init_t@xlslib_core@@AAE@ABV01@@Z
	??4xf_init_t@xlslib_core@@AAEAAV01@ABV01@@Z
	?_Destroy@?$vector@PBVlabel_t@xlslib_core@@V?$allocator@PBVlabel_t@xlslib_core@@@std@@@std@@IAEXPAPBVlabel_t@xlslib_core@@0@Z
	??8xf_init_t@xlslib_core@@QAE_NABV01@@Z
	?GetDefaultXFshadow@xf_t@xlslib_core@@CAABVxf_init_t@2@AAVCGlobalRecords@2@_N1@Z
	?_Orphan_range@?$vector@PAUDataValidation@xlslib_core@@V?$allocator@PAUDataValidation@xlslib_core@@@std@@@std@@IBEXPAPAUDataValidation@xlslib_core@@0@Z
	??0xf_t@xlslib_core@@AAE@AAVCGlobalRecords@1@_N11@Z
	??$_Cons_val@V?$allocator@PAVxf_t@xlslib_core@@@std@@PAVxf_t@xlslib_core@@ABQAV34@@std@@YAXAAV?$allocator@PAVxf_t@xlslib_core@@@0@PAPAVxf_t@xlslib_core@@ABQAV23@@Z
	??0xf_t@xlslib_core@@AAE@ABV01@@Z
	??0xf_t@xlslib_core@@AAE@AAVCGlobalRecords@1@ABVxf_init_t@1@@Z
	??1xf_i@xlslib_core@@UAE@XZ
	??8?$_String_const_iterator@DU?$char_traits@D@std@@V?$allocator@D@2@@std@@QBE_NABV01@@Z
	?allocate@?$allocator@PAUDataValidation@xlslib_core@@@std@@QAEPAPAUDataValidation@xlslib_core@@I@Z
	??4boundsheet_t@xlslib_core@@AAEAAV01@ABV01@@Z
	?SetFlag@xf_t@xlslib_core@@AAEXE@Z
	?ClearFlag@xf_t@xlslib_core@@AAEXE@Z
	?GetFlags@xf_t@xlslib_core@@ABEEXZ
	?AtuneXF@xf_t@xlslib_core@@AAEXXZ
	?SetModifiedSecs@COleProp@xlslib_core@@QAEXH@Z
	?MarkUsed@xf_t@xlslib_core@@QAEXXZ
	?SetIndex@font_t@xlslib_core@@AAEXG@Z
	?Usage@xf_t@xlslib_core@@QBEIXZ
	?SetParent@xf_t@xlslib_core@@QAEXPBV12@@Z
	?SetFont@xf_t@xlslib_core@@QAEXPAVfont_t@2@@Z
	?property2docSummary@xlslib_core@@3QBHB
	??0number_t@xlslib_core@@AAE@AAVCGlobalRecords@1@IIHPAVxf_t@1@@Z
	xlsXformatSetFont
	xlsXformatGetFont
	?GetFont@xf_t@xlslib_core@@QBEPAVfont_t@2@XZ
	?GetFontIndex@xf_t@xlslib_core@@QBEGXZ
	?GetIndex@COleProp@xlslib_core@@QBEHXZ
	?SetFormatIndex@xf_t@xlslib_core@@QAEXG@Z
	?_Inside@?$vector@PAVfont_t@xlslib_core@@V?$allocator@PAVfont_t@xlslib_core@@@std@@@std@@IBE_NPBQAVfont_t@xlslib_core@@@Z
	xlsXformatSetFormatP
	xlsXformatGetFormat
	?GetFormat@xf_t@xlslib_core@@QBE?AW4format_number_t@2@XZ
	?Description@xf_t@xlslib_core@@ABE?AV?$basic_string@DU?$char_traits@D@std@@V?$allocator@D@2@@std@@XZ
	?boolalpha@?$_Iosb@H@std@@2W4_Fmtflags@12@B
	?SetBorderColor@xf_t@xlslib_core@@QAEXW4border_side_t@2@E@Z
	xlsXformatGetBorderStyle
	??$_Construct@IABI@std@@YAXPAIABI@Z
	?GetBorderStyle@xf_t@xlslib_core@@QBEEW4border_side_t@2@@Z
	??4xf_t@xlslib_core@@AAEAAV01@ABV01@@Z
	??8xf_t@xlslib_core@@QAE_NABV01@@Z
	?allocate@?$allocator@I@std@@QAEPAII@Z
	?colwidth@worksheet@xlslib_core@@QAEXIGPAVxf_t@2@@Z
	xlsXformatSetHAlign
	??$_Insertion_sort@PAPAVCOleProp@xlslib_core@@P6A_NPBV12@0@Z@std@@YAXPAPAVCOleProp@xlslib_core@@0P6A_NPBV12@1@Z@Z
	?SetHAlign@xf_t@xlslib_core@@QAEXW4halign_option_t@2@@Z
	xlsXformatGetVAlign
	?GetVAlign@xf_t@xlslib_core@@QBEEXZ
	?empty@?$vector@PAUHyperLink@xlslib_core@@V?$allocator@PAUHyperLink@xlslib_core@@@std@@@std@@QBE_NXZ
	?GetTxtOrientation@xf_t@xlslib_core@@QBEEXZ
	?SetFillFGColor@xf_t@xlslib_core@@QAEXW4color_name_t@2@@Z
	xlsXformatSetFillFGColor
	?GetFillFGColorIdx@xf_t@xlslib_core@@QBEGXZ
	?end@?$_Tree@V?$_Tset_traits@PAVcell_t@xlslib_core@@Vinsertsort@2@V?$allocator@PAVcell_t@xlslib_core@@@std@@$0A@@std@@@std@@QBE?AV?$_Tree_const_iterator@V?$_Tree_val@V?$_Tset_traits@PAVcell_t@xlslib_core@@Vinsertsort@2@V?$allocator@PAVcell_t@xlslib_core@@@std@@$0A@@std@@@std@@@2@XZ
	xlsXformatGetFillFGColorIdx
	?SetFillBGColor@xf_t@xlslib_core@@QAEXE@Z
	?SetFillStyle@xf_t@xlslib_core@@QAEXW4fill_option_t@2@@Z
	?erase@?$_Tree@V?$_Tset_traits@PAVHPSFitem@xlslib_core@@Vinsertsort2@2@V?$allocator@PAVHPSFitem@xlslib_core@@@std@@$0A@@std@@@std@@QAEIABQAVHPSFitem@xlslib_core@@@Z
	xlsXformatSetFillStyle
	?SetFontIndex@CExtFormat@xlslib_core@@QAEHG@Z
	?SetWrap@xf_t@xlslib_core@@QAEX_N@Z
	xlsXformatSetWrap
	??D?$_Tree_const_iterator@V?$_Tree_val@V?$_Tset_traits@PAVcell_t@xlslib_core@@Vinsertsort@2@V?$allocator@PAVcell_t@xlslib_core@@@std@@$0A@@std@@@std@@@std@@QBEABQAVcell_t@xlslib_core@@XZ
	xlsXformatIsWrap
	?IsWrap@xf_t@xlslib_core@@QBE_NXZ
	?ResetDataStorage@CUnit@xlslib_core@@IAEXXZ
	xlsXformatIsCell
	??0CExtFormat@xlslib_core@@IAE@AAVCDataStorage@1@PBVxf_t@1@@Z
	?GetAllNodes@COleFileSystem@xlslib_core@@QAEXAAV?$vector@PAVCOleProp@xlslib_core@@V?$allocator@PAVCOleProp@xlslib_core@@@std@@@std@@@Z
	?InitDummy@CExtFormat@xlslib_core@@AAEX_N@Z
	?IsCell@CExtFormat@xlslib_core@@QAE_NXZ
	??$_Destroy_range@V?$allocator@PAUDataValidation@xlslib_core@@@std@@@std@@YAXPAPAUDataValidation@xlslib_core@@0AAV?$allocator@PAUDataValidation@xlslib_core@@@0@U_Scalar_ptr_iterator_tag@0@@Z
	?GetFontIndex@CExtFormat@xlslib_core@@QAEGXZ
	?SetFormatIndex@CExtFormat@xlslib_core@@QAEHG@Z
	??$forward@V?$basic_string@_WU?$char_traits@_W@std@@V?$allocator@_W@2@@std@@@std@@YA$$QAV?$basic_string@_WU?$char_traits@_W@std@@V?$allocator@_W@2@@0@AAV10@@Z
	?GetFormatIndex@CExtFormat@xlslib_core@@QAEGXZ
	?max_size@?$list@PAV?$basic_string@DU?$char_traits@D@std@@V?$allocator@D@2@@std@@V?$allocator@PAV?$basic_string@DU?$char_traits@D@std@@V?$allocator@D@2@@std@@@2@@std@@QBEIXZ
	??1?$vector@IV?$allocator@I@std@@@std@@QAE@XZ
	?SetHidden@CExtFormat@xlslib_core@@QAEX_N@Z
	??$_Ptr_cat@V?$basic_string@_WU?$char_traits@_W@std@@V?$allocator@_W@2@@std@@V12@@std@@YA?AU_Nonscalar_ptr_iterator_tag@0@PAV?$basic_string@_WU?$char_traits@_W@std@@V?$allocator@_W@2@@0@0@Z
	?SetVertAlign@CExtFormat@xlslib_core@@QAEXE@Z
	?SetWrap@CExtFormat@xlslib_core@@QAEX_N@Z
	??0?$_Pair_base@V?$_Tree_const_iterator@V?$_Tree_val@V?$_Tset_traits@PAVHPSFitem@xlslib_core@@Vinsertsort2@2@V?$allocator@PAVHPSFitem@xlslib_core@@@std@@$0A@@std@@@std@@@std@@_N@std@@QAE@$$QAV?$_Tree_const_iterator@V?$_Tree_val@V?$_Tset_traits@PAVHPSFitem@xlslib_core@@Vinsertsort2@2@V?$allocator@PAVHPSFitem@xlslib_core@@@std@@$0A@@std@@@std@@@1@$$QA_N@Z
	?IsVeryHidden@boundsheet_t@xlslib_core@@QBE_NXZ
	?SetTxtOrientation@CExtFormat@xlslib_core@@QAEXE@Z
	?SetFGColorIndex@CExtFormat@xlslib_core@@QAEXG@Z
	?SetFillPattern@CExtFormat@xlslib_core@@QAEXE@Z
	??0?$basic_ostringstream@DU?$char_traits@D@std@@V?$allocator@D@2@@std@@QAE@H@Z
	??1?$basic_ostringstream@DU?$char_traits@D@std@@V?$allocator@D@2@@std@@UAE@XZ
	?GetResultEstimate@expression_node_t@xlslib_core@@UBEXAAVestimated_formula_result_t@2@@Z
	?erase@?$vector@IV?$allocator@I@std@@@std@@QAE?AV?$_Vector_iterator@V?$_Vector_val@IV?$allocator@I@std@@@std@@@2@V?$_Vector_const_iterator@V?$_Vector_val@IV?$allocator@I@std@@@std@@@2@0@Z
	?str@?$basic_ostringstream@DU?$char_traits@D@std@@V?$allocator@D@2@@std@@QBE?AV?$basic_string@DU?$char_traits@D@std@@V?$allocator@D@2@@2@XZ
	??0sentry@?$basic_ostream@DU?$char_traits@D@std@@@std@@QAE@AAV12@@Z
	?_Inside@?$vector@PAVformat_t@xlslib_core@@V?$allocator@PAVformat_t@xlslib_core@@@std@@@std@@IBE_NPBQAVformat_t@xlslib_core@@@Z
	??1sentry@?$basic_ostream@DU?$char_traits@D@std@@@std@@QAE@XZ
	??Bsentry@?$basic_ostream@DU?$char_traits@D@std@@@std@@QBEPQ_Bool_struct@2@HXZ
	?DumpData@worksheet@xlslib_core@@AAEPAVCUnit@2@AAVCDataStorage@2@II@Z
	??0_Sentry_base@?$basic_ostream@DU?$char_traits@D@std@@@std@@QAE@AAV12@@Z
	?begin@?$basic_string@DU?$char_traits@D@std@@V?$allocator@D@2@@std@@QBE?AV?$_String_const_iterator@DU?$char_traits@D@std@@V?$allocator@D@2@@2@XZ
	??1_Sentry_base@?$basic_ostream@DU?$char_traits@D@std@@@std@@QAE@XZ
	?Position@CBinFile@xlslib_core@@QAEIXZ
	??$?6U?$char_traits@D@std@@@std@@YAAAV?$basic_ostream@DU?$char_traits@D@std@@@0@AAV10@PBD@Z
	??1font_t@xlslib_core@@EAE@XZ
	??0font_t@xlslib_core@@AAE@ABV01@@Z
	??0font_t@xlslib_core@@AAE@AAVCGlobalRecords@1@GABV?$basic_string@DU?$char_traits@D@std@@V?$allocator@D@2@@std@@GW4boldness_option_t@1@W4underline_option_t@1@W4script_option_t@1@W4color_name_t@1@GEE@Z
	?MarkUsed@font_t@xlslib_core@@QAEXXZ
	?end@?$vector@PAVboundsheet_t@xlslib_core@@V?$allocator@PAVboundsheet_t@xlslib_core@@@std@@@std@@QAE?AV?$_Vector_iterator@V?$_Vector_val@PAVboundsheet_t@xlslib_core@@V?$allocator@PAVboundsheet_t@xlslib_core@@@std@@@std@@@2@XZ
	?GetModifiedSecs@COleProp@xlslib_core@@QBEHXZ
	?_Color@?$_Tree_val@V?$_Tset_traits@PAVHPSFitem@xlslib_core@@Vinsertsort2@2@V?$allocator@PAVHPSFitem@xlslib_core@@@std@@$0A@@std@@@std@@SAAADPAU_Node@?$_Tree_nod@V?$_Tset_traits@PAVHPSFitem@xlslib_core@@Vinsertsort2@2@V?$allocator@PAVHPSFitem@xlslib_core@@@std@@$0A@@std@@@2@@Z
	?SetItalic@font_t@xlslib_core@@QAEX_N@Z
	?SetStrikeout@font_t@xlslib_core@@QAEX_N@Z
	?SetOutline@font_t@xlslib_core@@QAEX_N@Z
	?GetBATCount@COleDoc@xlslib_core@@AAE?AUblocks@2@XZ
	?SetRecordTypeIndexed@CRecord@xlslib_core@@QAEDGI@Z
	?SetShadow@font_t@xlslib_core@@QAEX_N@Z
	?clear@?$basic_string@DU?$char_traits@D@std@@V?$allocator@D@2@@std@@QAEXXZ
	?GetIndex@font_t@xlslib_core@@QBEGXZ
	?SetName@font_t@xlslib_core@@QAEXABV?$basic_string@DU?$char_traits@D@std@@V?$allocator@D@2@@std@@@Z
	?SetHeight@font_t@xlslib_core@@QAEXG@Z
	xlsFontSetBoldStyle
	??0?$allocator@PAVCOleProp@xlslib_core@@@std@@QAE@XZ
	?SetBoldStyle@font_t@xlslib_core@@QAEXW4boldness_option_t@2@@Z
	?_Lmost@?$_Tree@V?$_Tset_traits@PAVcell_t@xlslib_core@@Vinsertsort@2@V?$allocator@PAVcell_t@xlslib_core@@@std@@$0A@@std@@@std@@IBEAAPAU_Node@?$_Tree_nod@V?$_Tset_traits@PAVcell_t@xlslib_core@@Vinsertsort@2@V?$allocator@PAVcell_t@xlslib_core@@@std@@$0A@@std@@@2@XZ
	?_SetBoldStyle@font_t@xlslib_core@@AAEXG@Z
	??$_Construct@Urowblocksize_t@xlslib_core@@ABU12@@std@@YAXPAUrowblocksize_t@xlslib_core@@ABU12@@Z
	?_Orphan_range@?$vector@PAVformat_t@xlslib_core@@V?$allocator@PAVformat_t@xlslib_core@@@std@@@std@@IBEXPAPAVformat_t@xlslib_core@@0@Z
	xlsFontGetUnderlineStyle
	??9?$_Tree_const_iterator@V?$_Tree_val@V?$_Tset_traits@U?$pair@PAVxf_t@xlslib_core@@UborderedXft@2@@std@@VxfSorter@xlslib_core@@V?$allocator@U?$pair@PAVxf_t@xlslib_core@@UborderedXft@2@@std@@@2@$0A@@std@@@std@@@std@@QBE_NABV01@@Z
	?GetUnderlineStyle@font_t@xlslib_core@@QBEEXZ
	??Y?$_String_iterator@GU?$char_traits@G@std@@V?$allocator@G@2@@std@@QAEAAV01@H@Z
	?allocate@?$allocator@U_Node@?$_Tree_nod@V?$_Tset_traits@U?$pair@PAVxf_t@xlslib_core@@UborderedXft@2@@std@@VxfSorter@xlslib_core@@V?$allocator@U?$pair@PAVxf_t@xlslib_core@@UborderedXft@2@@std@@@2@$0A@@std@@@std@@@std@@QAEPAU_Node@?$_Tree_nod@V?$_Tset_traits@U?$pair@PAVxf_t@xlslib_core@@UborderedXft@2@@std@@VxfSorter@xlslib_core@@V?$allocator@U?$pair@PAVxf_t@xlslib_core@@UborderedXft@2@@std@@@2@$0A@@std@@@2@I@Z
	xlsFontGetScriptStyle
	?GetScriptStyle@font_t@xlslib_core@@QBEGXZ
	?SetColor@font_t@xlslib_core@@QAEXE@Z
	?GetAttributes@font_t@xlslib_core@@QBEGXZ
	?SetFamily@font_t@xlslib_core@@QAEXE@Z
	??$_Cons_val@V?$allocator@PAUstyle_t@xlslib_core@@@std@@PAUstyle_t@xlslib_core@@ABQAU34@@std@@YAXAAV?$allocator@PAUstyle_t@xlslib_core@@@0@PAPAUstyle_t@xlslib_core@@ABQAU23@@Z
	?GetFamily@font_t@xlslib_core@@QBEEXZ
	??0binary_op_node_t@xlslib_core@@QAE@AAVCGlobalRecords@1@W4expr_operator_code_t@1@PAVexpression_node_t@1@2@Z
	?SetCharset@font_t@xlslib_core@@QAEXE@Z
	?GetCharset@font_t@xlslib_core@@QBEEXZ
	?GetItalic@font_t@xlslib_core@@QBE_NXZ
	?GetOutline@font_t@xlslib_core@@QBE_NXZ
	?GetShadow@font_t@xlslib_core@@QBE_NXZ
	??0CFont@xlslib_core@@IAE@AAVCDataStorage@1@PBVfont_t@1@@Z
	??$construct@AAPAVboundsheet_t@xlslib_core@@@?$allocator@PAVboundsheet_t@xlslib_core@@@std@@QAEXPAPAVboundsheet_t@xlslib_core@@AAPAV23@@Z
	??1format_t@xlslib_core@@EAE@XZ
	?GetType@COleProp@xlslib_core@@QBEEXZ
	?format2index@format_t@xlslib_core@@SAGW4format_number_t@2@@Z
	??0format_t@xlslib_core@@AAE@ABV01@@Z
	?area@expression_node_factory_t@xlslib_core@@QAEPAVcellarea_deref_node_t@2@ABVcell_t@2@0PBVworksheet@2@W4cell_addr_mode_t@2@W4cell_op_class_t@2@@Z
	??0format_t@xlslib_core@@AAE@AAVCGlobalRecords@1@ABV?$basic_string@DU?$char_traits@D@std@@V?$allocator@D@2@@std@@@Z
	??0?$_List_iterator@V?$_List_val@PAV?$basic_string@DU?$char_traits@D@std@@V?$allocator@D@2@@std@@V?$allocator@PAV?$basic_string@DU?$char_traits@D@std@@V?$allocator@D@2@@std@@@2@@std@@@std@@QAE@PAU_Node@?$_List_nod@PAV?$basic_string@DU?$char_traits@D@std@@V?$allocator@D@2@@std@@V?$allocator@PAV?$basic_string@DU?$char_traits@D@std@@V?$allocator@D@2@@std@@@2@@1@PBV?$_List_val@PAV?$basic_string@DU?$char_traits@D@std@@V?$allocator@D@2@@std@@V?$allocator@PAV?$basic_string@DU?$char_traits@D@std@@V?$allocator@D@2@@std@@@2@@1@@Z
	??0format_t@xlslib_core@@AAE@AAVCGlobalRecords@1@ABV?$basic_string@_WU?$char_traits@_W@std@@V?$allocator@_W@2@@std@@@Z
	?reserve@?$basic_string@GU?$char_traits@G@std@@V?$allocator@G@2@@std@@QAEXI@Z
	??0format_t@xlslib_core@@AAE@AAVCGlobalRecords@1@ABV?$basic_string@GU?$char_traits@G@std@@V?$allocator@G@2@@std@@@Z
	?MarkUsed@format_t@xlslib_core@@QAEXXZ
	?UnMarkUsed@format_t@xlslib_core@@QAEXXZ
	?npos@?$basic_string@DU?$char_traits@D@std@@V?$allocator@D@2@@std@@2IB
	??0?$basic_string@GU?$char_traits@G@std@@V?$allocator@G@2@@std@@QAE@XZ
	?NumberOfArgsForExcelFunction@xlslib_core@@YAGW4expr_function_code_t@1@@Z
	?_Tidy@?$vector@PAVformula_t@xlslib_core@@V?$allocator@PAVformula_t@xlslib_core@@@std@@@std@@IAEXXZ
	?end@?$vector@PAVfont_t@xlslib_core@@V?$allocator@PAVfont_t@xlslib_core@@@std@@@std@@QAE?AV?$_Vector_iterator@V?$_Vector_val@PAVfont_t@xlslib_core@@V?$allocator@PAVfont_t@xlslib_core@@@std@@@std@@@2@XZ
	??0formula_t@xlslib_core@@QAE@AAVCGlobalRecords@1@PAVworksheet@1@@Z
	??8?$_Vector_const_iterator@V?$_Vector_val@PAVrange@xlslib_core@@V?$allocator@PAVrange@xlslib_core@@@std@@@std@@@std@@QBE_NABV01@@Z
	??1formula_t@xlslib_core@@UAE@XZ
	?PushBoolean@formula_t@xlslib_core@@QAED_N@Z
	?begin@?$basic_string@DU?$char_traits@D@std@@V?$allocator@D@2@@std@@QAE?AV?$_String_iterator@DU?$char_traits@D@std@@V?$allocator@D@2@@2@XZ
	??$_Median@PAPAVCOleProp@xlslib_core@@P6A_NPBV12@0@Z@std@@YAXPAPAVCOleProp@xlslib_core@@00P6A_NPBV12@1@Z@Z
	?PushError@formula_t@xlslib_core@@QAEDE@Z
	?PushInteger@formula_t@xlslib_core@@QAEDH@Z
	?PushFloatingPoint@formula_t@xlslib_core@@QAEDN@Z
	?f@expression_node_factory_t@xlslib_core@@QAEPAVz_ary_func_node_t@2@W4expr_function_code_t@2@@Z
	?PushCellReference@formula_t@xlslib_core@@QAEDABVcell_t@2@W4cell_addr_mode_t@2@@Z
	?PushReference@formula_t@xlslib_core@@AAEDIIIW4cell_addr_mode_t@2@@Z
	?PushCellAreaReference@formula_t@xlslib_core@@QAEDABVcell_t@2@0W4cell_addr_mode_t@2@@Z
	?PushAreaReference@formula_t@xlslib_core@@AAEDIIIIIIW4cell_addr_mode_t@2@@Z
	??0function_basenode_t@xlslib_core@@QAE@AAVCGlobalRecords@1@W4expr_function_code_t@1@@Z
	?PushFunction@formula_t@xlslib_core@@QAEDW4expr_function_code_t@2@@Z
	?PushFunction@formula_t@xlslib_core@@QAEDW4expr_function_code_t@2@I@Z
	??$_Move@PAPAVrange_t@xlslib_core@@PAPAV12@@std@@YAPAPAVrange_t@xlslib_core@@PAPAV12@00U_Scalar_ptr_iterator_tag@0@@Z
	?AddValue64FP@CUnit@xlslib_core@@QAEDN@Z
	?PushText@formula_t@xlslib_core@@QAEDABV?$basic_string@_WU?$char_traits@_W@std@@V?$allocator@_W@2@@std@@@Z
	?PushText@formula_t@xlslib_core@@QAEDABV?$basic_string@GU?$char_traits@G@std@@V?$allocator@G@2@@std@@@Z
	?PushTextArray@formula_t@xlslib_core@@QAEDABV?$vector@V?$basic_string@DU?$char_traits@D@std@@V?$allocator@D@2@@std@@V?$allocator@V?$basic_string@DU?$char_traits@D@std@@V?$allocator@D@2@@std@@@2@@std@@@Z
	?allocate@?$allocator@PAUHyperLink@xlslib_core@@@std@@QAEPAPAUHyperLink@xlslib_core@@I@Z
	?PushTextArray@formula_t@xlslib_core@@QAEDABV?$vector@V?$basic_string@_WU?$char_traits@_W@std@@V?$allocator@_W@2@@std@@V?$allocator@V?$basic_string@_WU?$char_traits@_W@std@@V?$allocator@_W@2@@std@@@2@@std@@@Z
	?_Rank@?$_Arithmetic_traits@O@std@@2HB
	?_Tidy@?$vector@PAVCOleProp@xlslib_core@@V?$allocator@PAVCOleProp@xlslib_core@@@std@@@std@@IAEXXZ
	?PushFloatingPointArray@formula_t@xlslib_core@@QAEDABV?$vector@NV?$allocator@N@std@@@std@@@Z
	?_Register@facet@locale@std@@QAEXXZ
	?DumpData@formula_t@xlslib_core@@QBEXAAVCUnit@2@@Z
	??0?$_Tree_const_iterator@V?$_Tree_val@V?$_Tset_traits@PAVHPSFitem@xlslib_core@@Vinsertsort2@2@V?$allocator@PAVHPSFitem@xlslib_core@@@std@@$0A@@std@@@std@@@std@@QAE@PAU_Node@?$_Tree_nod@V?$_Tset_traits@PAVHPSFitem@xlslib_core@@Vinsertsort2@2@V?$allocator@PAVHPSFitem@xlslib_core@@@std@@$0A@@std@@@1@PBV?$_Tree_val@V?$_Tset_traits@PAVHPSFitem@xlslib_core@@Vinsertsort2@2@V?$allocator@PAVHPSFitem@xlslib_core@@@std@@$0A@@std@@@1@@Z
	?GetSize@formula_t@xlslib_core@@QBEIXZ
	?GetResultEstimate@formula_t@xlslib_core@@QBEXAAVestimated_formula_result_t@2@@Z
	??$_Uninitialized_move@PAPBVlabel_t@xlslib_core@@PAPBV12@V?$allocator@PBVlabel_t@xlslib_core@@@std@@@std@@YAPAPBVlabel_t@xlslib_core@@PAPBV12@00AAV?$allocator@PBVlabel_t@xlslib_core@@@0@@Z
	??A?$vector@V?$basic_string@DU?$char_traits@D@std@@V?$allocator@D@2@@std@@V?$allocator@V?$basic_string@DU?$char_traits@D@std@@V?$allocator@D@2@@std@@@2@@std@@QBEABV?$basic_string@DU?$char_traits@D@std@@V?$allocator@D@2@@1@I@Z
	??A?$vector@VCUnitStore@xlslib_core@@V?$allocator@VCUnitStore@xlslib_core@@@std@@@std@@QAEAAVCUnitStore@xlslib_core@@I@Z
	?capacity@?$vector@PAUHyperLink@xlslib_core@@V?$allocator@PAUHyperLink@xlslib_core@@@std@@@std@@QBEIXZ
	??A?$vector@V?$basic_string@_WU?$char_traits@_W@std@@V?$allocator@_W@2@@std@@V?$allocator@V?$basic_string@_WU?$char_traits@_W@std@@V?$allocator@_W@2@@std@@@2@@std@@QBEABV?$basic_string@_WU?$char_traits@_W@std@@V?$allocator@_W@2@@1@I@Z
	??A?$vector@NV?$allocator@N@std@@@std@@QBEABNI@Z
	?xfiInit@xf_t@xlslib_core@@0Vxf_init_t@2@B
	?GetGlobalRecords@font_t@xlslib_core@@QBEAAVCGlobalRecords@2@XZ
	?_Erase@?$_Tree@V?$_Tset_traits@U?$pair@PAVxf_t@xlslib_core@@UborderedXft@2@@std@@VxfSorter@xlslib_core@@V?$allocator@U?$pair@PAVxf_t@xlslib_core@@UborderedXft@2@@std@@@2@$0A@@std@@@std@@IAEXPAU_Node@?$_Tree_nod@V?$_Tset_traits@U?$pair@PAVxf_t@xlslib_core@@UborderedXft@2@@std@@VxfSorter@xlslib_core@@V?$allocator@U?$pair@PAVxf_t@xlslib_core@@UborderedXft@2@@std@@@2@$0A@@std@@@2@@Z
	?_Lmost@?$_Tree@V?$_Tset_traits@PAVHPSFitem@xlslib_core@@Vinsertsort2@2@V?$allocator@PAVHPSFitem@xlslib_core@@@std@@$0A@@std@@@std@@IBEAAPAU_Node@?$_Tree_nod@V?$_Tset_traits@PAVHPSFitem@xlslib_core@@Vinsertsort2@2@V?$allocator@PAVHPSFitem@xlslib_core@@@std@@$0A@@std@@@2@XZ
	?DataStore@CUnit@xlslib_core@@QAEAAVCDataStorage@2@XZ
	?_Lmost@?$_Tree@V?$_Tset_traits@PAUcolinfo_t@xlslib_core@@Vcolinfosort@2@V?$allocator@PAUcolinfo_t@xlslib_core@@@std@@$0A@@std@@@std@@IBEAAPAU_Node@?$_Tree_nod@V?$_Tset_traits@PAUcolinfo_t@xlslib_core@@Vcolinfosort@2@V?$allocator@PAUcolinfo_t@xlslib_core@@@std@@$0A@@std@@@2@XZ
	?size@?$list@PAV?$basic_string@DU?$char_traits@D@std@@V?$allocator@D@2@@std@@V?$allocator@PAV?$basic_string@DU?$char_traits@D@std@@V?$allocator@D@2@@std@@@2@@std@@QBEIXZ
	?GetGlobalRecords@cell_t@xlslib_core@@QBEAAVCGlobalRecords@2@XZ
	?GetXF@rowheight_t@xlslib_core@@QBEPAVxf_t@2@XZ
	?_Lmost@?$_Tree@V?$_Tset_traits@U?$pair@PAVxf_t@xlslib_core@@UborderedXft@2@@std@@VxfSorter@xlslib_core@@V?$allocator@U?$pair@PAVxf_t@xlslib_core@@UborderedXft@2@@std@@@2@$0A@@std@@@std@@IBEAAPAU_Node@?$_Tree_nod@V?$_Tset_traits@U?$pair@PAVxf_t@xlslib_core@@UborderedXft@2@@std@@VxfSorter@xlslib_core@@V?$allocator@U?$pair@PAVxf_t@xlslib_core@@UborderedXft@2@@std@@@2@$0A@@std@@@2@XZ
	??$insert@AAPAVcell_t@xlslib_core@@@?$_Tree@V?$_Tset_traits@PAVcell_t@xlslib_core@@Vinsertsort@2@V?$allocator@PAVcell_t@xlslib_core@@@std@@$0A@@std@@@std@@QAE?AV?$_Tree_const_iterator@V?$_Tree_val@V?$_Tset_traits@PAVcell_t@xlslib_core@@Vinsertsort@2@V?$allocator@PAVcell_t@xlslib_core@@@std@@$0A@@std@@@std@@@1@V21@AAPAVcell_t@xlslib_core@@@Z
	??0?$allocator@PAVformat_t@xlslib_core@@@std@@QAE@XZ
	?GetAST@formula_cell_t@xlslib_core@@ABEPBVexpression_node_t@2@XZ
	?GetResultEstimate@formula_cell_t@xlslib_core@@QBEXAAVestimated_formula_result_t@2@@Z
	?GetSize@formula_cell_t@xlslib_core@@EBEIXZ
	?_Reserve@?$vector@PAVformat_t@xlslib_core@@V?$allocator@PAVformat_t@xlslib_core@@@std@@@std@@IAEXI@Z
	?GetData@formula_cell_t@xlslib_core@@EBEPAVCUnit@2@AAVCDataStorage@2@@Z
	??0CFormula@xlslib_core@@IAE@AAVCDataStorage@1@ABVformula_cell_t@1@@Z
	?length@?$basic_string@GU?$char_traits@G@std@@V?$allocator@G@2@@std@@QBEIXZ
	??$_Destroy@PAVHPSFitem@xlslib_core@@@std@@YAXPAPAVHPSFitem@xlslib_core@@@Z
	?_Adopt@_Iterator_base0@std@@QAEXPBX@Z
	xlsCellGetCol
	?length@?$basic_string@_WU?$char_traits@_W@std@@V?$allocator@_W@2@@std@@QBEIXZ
	?length@?$basic_string@DU?$char_traits@D@std@@V?$allocator@D@2@@std@@QBEIXZ
	??E?$_Vector_const_iterator@V?$_Vector_val@PAVrange@xlslib_core@@V?$allocator@PAVrange@xlslib_core@@@std@@@std@@@std@@QAEAAV01@XZ
	?size@?$basic_string@GU?$char_traits@G@std@@V?$allocator@G@2@@std@@QBEIXZ
	?size@?$basic_string@DU?$char_traits@D@std@@V?$allocator@D@2@@std@@QBEIXZ
	?size@?$basic_string@_WU?$char_traits@_W@std@@V?$allocator@_W@2@@std@@QBEIXZ
	?GetCol@cell_t@xlslib_core@@QBEIXZ
	?state@?$fpos@H@std@@QBEHXZ
	??0estimated_formula_result_t@xlslib_core@@QAE@AAVCGlobalRecords@1@@Z
	?_Reserve@?$vector@PAUstyle_t@xlslib_core@@V?$allocator@PAUstyle_t@xlslib_core@@@std@@@std@@IAEXI@Z
	?clear@?$_Tree@V?$_Tset_traits@PAUcolinfo_t@xlslib_core@@Vcolinfosort@2@V?$allocator@PAUcolinfo_t@xlslib_core@@@std@@$0A@@std@@@std@@QAEXXZ
	??1estimated_formula_result_t@xlslib_core@@UAE@XZ
	??4estimated_formula_result_t@xlslib_core@@IAEAAV01@ABV01@@Z
	?empty@?$vector@PAUstyle_t@xlslib_core@@V?$allocator@PAUstyle_t@xlslib_core@@@std@@@std@@QBE_NXZ
	??1CContinue@xlslib_core@@EAE@XZ
	?clear_value@estimated_formula_result_t@xlslib_core@@IAEXW4estval_type_t@12@@Z
	?SetCalcOnLoad@estimated_formula_result_t@xlslib_core@@QAEXXZ
	?SetCalcAlways@estimated_formula_result_t@xlslib_core@@QAEXXZ
	?GetOptionFlags@estimated_formula_result_t@xlslib_core@@QBEGXZ
	?_Right@?$_Tree_val@V?$_Tset_traits@PAVrowheight_t@xlslib_core@@Vrowheightsort@2@V?$allocator@PAVrowheight_t@xlslib_core@@@std@@$0A@@std@@@std@@SAAAPAU_Node@?$_Tree_nod@V?$_Tset_traits@PAVrowheight_t@xlslib_core@@Vrowheightsort@2@V?$allocator@PAVrowheight_t@xlslib_core@@@std@@$0A@@std@@@2@PAU342@@Z
	?SetBoolean@estimated_formula_result_t@xlslib_core@@QAE_N_N@Z
	??0?$_Tree@V?$_Tset_traits@PAVcell_t@xlslib_core@@Vinsertsort@2@V?$allocator@PAVcell_t@xlslib_core@@@std@@$0A@@std@@@std@@QAE@ABVinsertsort@xlslib_core@@ABV?$allocator@PAVcell_t@xlslib_core@@@1@@Z
	?SetInteger@estimated_formula_result_t@xlslib_core@@QAEHH@Z
	?SetText@estimated_formula_result_t@xlslib_core@@QAEABV?$basic_string@GU?$char_traits@G@std@@V?$allocator@G@2@@std@@ABV?$basic_string@DU?$char_traits@D@std@@V?$allocator@D@2@@4@@Z
	?SetText@estimated_formula_result_t@xlslib_core@@QAEABV?$basic_string@GU?$char_traits@G@std@@V?$allocator@G@2@@std@@ABV?$basic_string@_WU?$char_traits@_W@std@@V?$allocator@_W@2@@4@@Z
	??$forward@ABQAVxf_t@xlslib_core@@@std@@YAABQAVxf_t@xlslib_core@@ABQAV12@@Z
	??0?$basic_string@DU?$char_traits@D@std@@V?$allocator@D@2@@std@@QAE@ID@Z
	?SetText@estimated_formula_result_t@xlslib_core@@QAEABV?$basic_string@GU?$char_traits@G@std@@V?$allocator@G@2@@std@@ABV34@@Z
	?SetErrorCode@estimated_formula_result_t@xlslib_core@@QAE?AW4errcode_t@2@W432@@Z
	?_Xlen@?$vector@PBVlabel_t@xlslib_core@@V?$allocator@PBVlabel_t@xlslib_core@@@std@@@std@@IBEXXZ
	?GetEncodedValue@estimated_formula_result_t@xlslib_core@@QBE_KXZ
	?capacity@?$vector@PAUstyle_t@xlslib_core@@V?$allocator@PAUstyle_t@xlslib_core@@@std@@@std@@QBEIXZ
	?EncodedValueIsString@estimated_formula_result_t@xlslib_core@@QBE_NXZ
	?GetStringValue@estimated_formula_result_t@xlslib_core@@QBEPBV?$basic_string@GU?$char_traits@G@std@@V?$allocator@G@2@@std@@XZ
	??4?$basic_string@GU?$char_traits@G@std@@V?$allocator@G@2@@std@@QAEAAV01@ABV01@@Z
	?assign@?$basic_string@GU?$char_traits@G@std@@V?$allocator@G@2@@std@@QAEAAV12@ABV12@@Z
	??$forward@ABV?$basic_string@DU?$char_traits@D@std@@V?$allocator@D@2@@std@@@std@@YAABV?$basic_string@DU?$char_traits@D@std@@V?$allocator@D@2@@0@ABV10@@Z
	??0expression_node_t@xlslib_core@@QAE@AAVCGlobalRecords@1@@Z
	?GetChild@expression_node_t@xlslib_core@@UBEPAV12@G@Z
	?GetSize@userdef_func_node_t@xlslib_core@@UBEI_N@Z
	??0?$allocator@PAVboundsheet_t@xlslib_core@@@std@@QAE@ABV01@@Z
	?DestroyAST@expression_node_t@xlslib_core@@UAEXXZ
	?GetSize@expression_node_t@xlslib_core@@UBEI_N@Z
	??$move@AAV?$_Tree_const_iterator@V?$_Tree_val@V?$_Tset_traits@PAVrowheight_t@xlslib_core@@Vrowheightsort@2@V?$allocator@PAVrowheight_t@xlslib_core@@@std@@$0A@@std@@@std@@@std@@@std@@YA$$QAV?$_Tree_const_iterator@V?$_Tree_val@V?$_Tset_traits@PAVrowheight_t@xlslib_core@@Vrowheightsort@2@V?$allocator@PAVrowheight_t@xlslib_core@@@std@@$0A@@std@@@std@@@0@AAV10@@Z
	?DumpData@expression_node_t@xlslib_core@@UBEDAAVformula_t@2@_N@Z
	??1CWindow1@xlslib_core@@EAE@XZ
	??1binary_func_node_t@xlslib_core@@UAE@XZ
	??1operator_basenode_t@xlslib_core@@UAE@XZ
	??1cell_deref_node_t@xlslib_core@@UAE@XZ
	??1missing_arg_node_t@xlslib_core@@UAE@XZ
	?VALIGN_OPTIONS_TABLE@xf_t@xlslib_core@@0QBEB
	??1unary_func_node_t@xlslib_core@@UAE@XZ
	??1error_value_node_t@xlslib_core@@UAE@XZ
	??1integer_value_node_t@xlslib_core@@UAE@XZ
	??1boolean_value_node_t@xlslib_core@@UAE@XZ
	?_Xlen@?$vector@PAVboundsheet_t@xlslib_core@@V?$allocator@PAVboundsheet_t@xlslib_core@@@std@@@std@@IBEXXZ
	??1binary_op_node_t@xlslib_core@@UAE@XZ
	??$_Cons_val@V?$allocator@PAVrange@xlslib_core@@@std@@PAVrange@xlslib_core@@ABQAV34@@std@@YAXAAV?$allocator@PAVrange@xlslib_core@@@0@PAPAVrange@xlslib_core@@ABQAV23@@Z
	??$_Uninit_move@PAVboundsheet_t@xlslib_core@@PAV12@PAV12@@std@@YAPAPAVboundsheet_t@xlslib_core@@PAPAV12@00AAV?$allocator@PAVboundsheet_t@xlslib_core@@@0@0U_Scalar_ptr_iterator_tag@0@@Z
	??1terminal_node_t@xlslib_core@@UAE@XZ
	??0?$allocator@PAVxf_t@xlslib_core@@@std@@QAE@ABV01@@Z
	??1locale@std@@QAE@XZ
	??1unary_op_node_t@xlslib_core@@UAE@XZ
	??1expression_node_t@xlslib_core@@UAE@XZ
	??0?$_Vector_val@PAVfont_t@xlslib_core@@V?$allocator@PAVfont_t@xlslib_core@@@std@@@std@@QAE@V?$allocator@PAVfont_t@xlslib_core@@@1@@Z
	?GetResultEstimate@boolean_value_node_t@xlslib_core@@UBEXAAVestimated_formula_result_t@2@@Z
	??Y?$_Vector_const_iterator@V?$_Vector_val@PAVworksheet@xlslib_core@@V?$allocator@PAVworksheet@xlslib_core@@@std@@@std@@@std@@QAEAAV01@H@Z
	?GetSize@boolean_value_node_t@xlslib_core@@UBEI_N@Z
	?GetValue8From@CUnit@xlslib_core@@QBEDPAEI@Z
	?DumpData@boolean_value_node_t@xlslib_core@@UBEDAAVformula_t@2@_N@Z
	??0integer_value_node_t@xlslib_core@@QAE@AAVCGlobalRecords@1@H@Z
	??$_Construct@PAVworksheet@xlslib_core@@ABQAV12@@std@@YAXPAPAVworksheet@xlslib_core@@ABQAV12@@Z
	?GetResultEstimate@integer_value_node_t@xlslib_core@@UBEXAAVestimated_formula_result_t@2@@Z
	?GetSize@integer_value_node_t@xlslib_core@@UBEI_N@Z
	?DumpData@integer_value_node_t@xlslib_core@@UBEDAAVformula_t@2@_N@Z
	?GetResultEstimate@float_value_node_t@xlslib_core@@UBEXAAVestimated_formula_result_t@2@@Z
	??0error_value_node_t@xlslib_core@@QAE@AAVCGlobalRecords@1@W4errcode_t@1@@Z
	??3@YAXPAX0@Z
	?GetResultEstimate@error_value_node_t@xlslib_core@@UBEXAAVestimated_formula_result_t@2@@Z
	?clear@?$basic_string@GU?$char_traits@G@std@@V?$allocator@G@2@@std@@QAEXXZ
	?DumpData@error_value_node_t@xlslib_core@@UBEDAAVformula_t@2@_N@Z
	??0missing_arg_node_t@xlslib_core@@QAE@AAVCGlobalRecords@1@@Z
	??$?0AAV?$_Tree_const_iterator@V?$_Tree_val@V?$_Tset_traits@PAVrowheight_t@xlslib_core@@Vrowheightsort@2@V?$allocator@PAVrowheight_t@xlslib_core@@@std@@$0A@@std@@@std@@@std@@_N@?$_Pair_base@V?$_Tree_const_iterator@V?$_Tree_val@V?$_Tset_traits@PAVrowheight_t@xlslib_core@@Vrowheightsort@2@V?$allocator@PAVrowheight_t@xlslib_core@@@std@@$0A@@std@@@std@@@std@@_N@std@@QAE@AAV?$_Tree_const_iterator@V?$_Tree_val@V?$_Tset_traits@PAVrowheight_t@xlslib_core@@Vrowheightsort@2@V?$allocator@PAVrowheight_t@xlslib_core@@@std@@$0A@@std@@@std@@@1@$$QA_N@Z
	?GetResultEstimate@missing_arg_node_t@xlslib_core@@UBEXAAVestimated_formula_result_t@2@@Z
	?GetSize@missing_arg_node_t@xlslib_core@@UBEI_N@Z
	?_Set_back@?$basic_filebuf@DU?$char_traits@D@std@@@std@@AAEXXZ
	??$forward@AAV?$_Tree_const_iterator@V?$_Tree_val@V?$_Tset_traits@PAUcolinfo_t@xlslib_core@@Vcolinfosort@2@V?$allocator@PAUcolinfo_t@xlslib_core@@@std@@$0A@@std@@@std@@@std@@@std@@YAAAV?$_Tree_const_iterator@V?$_Tree_val@V?$_Tset_traits@PAUcolinfo_t@xlslib_core@@Vcolinfosort@2@V?$allocator@PAUcolinfo_t@xlslib_core@@@std@@$0A@@std@@@std@@@0@AAV10@@Z
	?DumpData@missing_arg_node_t@xlslib_core@@UBEDAAVformula_t@2@_N@Z
	??0text_value_node_t@xlslib_core@@QAE@AAVCGlobalRecords@1@ABV?$basic_string@DU?$char_traits@D@std@@V?$allocator@D@2@@std@@@Z
	??0text_value_node_t@xlslib_core@@QAE@AAVCGlobalRecords@1@ABV?$basic_string@_WU?$char_traits@_W@std@@V?$allocator@_W@2@@std@@@Z
	??4text_value_node_t@xlslib_core@@AAEAAV01@ABV01@@Z
	?GetResultEstimate@text_value_node_t@xlslib_core@@UBEXAAVestimated_formula_result_t@2@@Z
	?GetSize@text_value_node_t@xlslib_core@@UBEI_N@Z
	?_Myval@?$_Tree_val@V?$_Tset_traits@U?$pair@PAVxf_t@xlslib_core@@UborderedXft@2@@std@@VxfSorter@xlslib_core@@V?$allocator@U?$pair@PAVxf_t@xlslib_core@@UborderedXft@2@@std@@@2@$0A@@std@@@std@@SAAAU?$pair@PAVxf_t@xlslib_core@@UborderedXft@2@@2@PAU_Node@?$_Tree_nod@V?$_Tset_traits@U?$pair@PAVxf_t@xlslib_core@@UborderedXft@2@@std@@VxfSorter@xlslib_core@@V?$allocator@U?$pair@PAVxf_t@xlslib_core@@UborderedXft@2@@std@@@2@$0A@@std@@@2@@Z
	?DumpData@text_value_node_t@xlslib_core@@UBEDAAVformula_t@2@_N@Z
	?_Key@?$_Tree_val@V?$_Tset_traits@PAVcell_t@xlslib_core@@Vinsertsort@2@V?$allocator@PAVcell_t@xlslib_core@@@std@@$0A@@std@@@std@@SAAAPAVcell_t@xlslib_core@@PAU_Node@?$_Tree_nod@V?$_Tset_traits@PAVcell_t@xlslib_core@@Vinsertsort@2@V?$allocator@PAVcell_t@xlslib_core@@@std@@$0A@@std@@@2@@Z
	??0cell_deref_node_t@xlslib_core@@QAE@AAVCGlobalRecords@1@ABVcell_t@1@W4cell_addr_mode_t@1@W4cell_op_class_t@1@@Z
	??$_Ungetc@D@std@@YA_NABDPAU_iobuf@@@Z
	??0cell_deref_node_t@xlslib_core@@QAE@AAVCGlobalRecords@1@ABVcell_t@1@PBVworksheet@1@W4cell_addr_mode_t@1@W4cell_op_class_t@1@@Z
	?GetSize@cell_deref_node_t@xlslib_core@@UBEI_N@Z
	?DumpData@cell_deref_node_t@xlslib_core@@UBEDAAVformula_t@2@_N@Z
	??0cellarea_deref_node_t@xlslib_core@@QAE@AAVCGlobalRecords@1@ABVcell_t@1@1W4cell_addr_mode_t@1@W4cell_op_class_t@1@@Z
	?GetSize@float_value_node_t@xlslib_core@@UBEI_N@Z
	?GetSize@cellarea_deref_node_t@xlslib_core@@UBEI_N@Z
	??F?$_Tree_const_iterator@V?$_Tree_val@V?$_Tset_traits@U?$pair@PAVxf_t@xlslib_core@@UborderedXft@2@@std@@VxfSorter@xlslib_core@@V?$allocator@U?$pair@PAVxf_t@xlslib_core@@UborderedXft@2@@std@@@2@$0A@@std@@@std@@@std@@QAEAAV01@XZ
	?GetResultEstimate@userdef_func_node_t@xlslib_core@@UBEXAAVestimated_formula_result_t@2@@Z
	?GetResultEstimate@cell_deref_node_t@xlslib_core@@UBEXAAVestimated_formula_result_t@2@@Z
	??0operator_basenode_t@xlslib_core@@QAE@AAVCGlobalRecords@1@W4expr_operator_code_t@1@@Z
	??0unary_op_node_t@xlslib_core@@QAE@AAVCGlobalRecords@1@W4expr_operator_code_t@1@PAVexpression_node_t@1@@Z
	?GetChild@unary_op_node_t@xlslib_core@@UBEPAVexpression_node_t@2@G@Z
	?GetNumberOfChilds@unary_op_node_t@xlslib_core@@UBEGXZ
	??$move@AAVCUnitStore@xlslib_core@@@std@@YA$$QAVCUnitStore@xlslib_core@@AAV12@@Z
	?GetNumberOfChilds@unary_func_node_t@xlslib_core@@UBEGXZ
	?GetSize@unary_op_node_t@xlslib_core@@UBEI_N@Z
	?DumpData@unary_op_node_t@xlslib_core@@UBEDAAVformula_t@2@_N@Z
	??4CUnit@xlslib_core@@AAEAAV01@ABV01@@Z
	?GetNumberOfChilds@binary_op_node_t@xlslib_core@@UBEGXZ
	?GetNumberOfChilds@binary_func_node_t@xlslib_core@@UBEGXZ
	??F?$_Tree_unchecked_const_iterator@V?$_Tree_val@V?$_Tset_traits@PAUcolinfo_t@xlslib_core@@Vcolinfosort@2@V?$allocator@PAUcolinfo_t@xlslib_core@@@std@@$0A@@std@@@std@@U_Iterator_base0@2@@std@@QAEAAV01@XZ
	?GetSize@binary_op_node_t@xlslib_core@@UBEI_N@Z
	?eofbit@?$_Iosb@H@std@@2W4_Iostate@12@B
	?DumpData@binary_op_node_t@xlslib_core@@UBEDAAVformula_t@2@_N@Z
	?GetResultEstimate@function_basenode_t@xlslib_core@@UBEXAAVestimated_formula_result_t@2@@Z
	?GetSize@function_basenode_t@xlslib_core@@UBEI_N@Z
	??$_Move@PAPAUDataValidation@xlslib_core@@PAPAU12@@std@@YAPAPAUDataValidation@xlslib_core@@PAPAU12@00@Z
	??0z_ary_func_node_t@xlslib_core@@QAE@AAVCGlobalRecords@1@W4expr_function_code_t@1@@Z
	?GetChild@unary_func_node_t@xlslib_core@@UBEPAVexpression_node_t@2@G@Z
	??0binary_func_node_t@xlslib_core@@QAE@AAVCGlobalRecords@1@W4expr_function_code_t@1@PAVexpression_node_t@1@2@Z
	?GetChild@binary_func_node_t@xlslib_core@@UBEPAVexpression_node_t@2@G@Z
	?_Tidy@?$vector@Urowblocksize_t@xlslib_core@@V?$allocator@Urowblocksize_t@xlslib_core@@@std@@@std@@IAEXXZ
	?property@workbook@xlslib_core@@QAE_NW4property_t@2@ABV?$basic_string@DU?$char_traits@D@std@@V?$allocator@D@2@@std@@@Z
	??0n_ary_func_node_t@xlslib_core@@QAE@AAVCGlobalRecords@1@W4expr_function_code_t@1@IPAPAVexpression_node_t@1@@Z
	??1userdef_func_node_t@xlslib_core@@UAE@XZ
	?_Reserve@?$vector@PAUHyperLink@xlslib_core@@V?$allocator@PAUHyperLink@xlslib_core@@@std@@@std@@IAEXI@Z
	??D?$_Vector_iterator@V?$_Vector_val@PAUstyle_t@xlslib_core@@V?$allocator@PAUstyle_t@xlslib_core@@@std@@@std@@@std@@QBEAAPAUstyle_t@xlslib_core@@XZ
	?GetChild@n_ary_func_node_t@xlslib_core@@UBEPAVexpression_node_t@2@G@Z
	?GetNumberOfChilds@n_ary_func_node_t@xlslib_core@@UBEGXZ
	?PushArg@n_ary_func_node_t@xlslib_core@@UAEAAVfunction_basenode_t@2@PAVexpression_node_t@2@@Z
	??0userdef_func_node_t@xlslib_core@@QAE@AAVCGlobalRecords@1@HIPAPAVexpression_node_t@1@@Z
	?_Max@?$_Tree_val@V?$_Tset_traits@PAUcolinfo_t@xlslib_core@@Vcolinfosort@2@V?$allocator@PAUcolinfo_t@xlslib_core@@@std@@$0A@@std@@@std@@SAPAU_Node@?$_Tree_nod@V?$_Tset_traits@PAUcolinfo_t@xlslib_core@@Vcolinfosort@2@V?$allocator@PAUcolinfo_t@xlslib_core@@@std@@$0A@@std@@@2@PAU342@@Z
	?DumpData@userdef_func_node_t@xlslib_core@@UBEDAAVformula_t@2@_N@Z
	??0expression_node_factory_t@xlslib_core@@AAE@AAVCGlobalRecords@1@@Z
	?ctype@?$_Locbase@H@std@@2HB
	??4expression_node_factory_t@xlslib_core@@AAEAAV01@ABV01@@Z
	??E?$_Tree_const_iterator@V?$_Tree_val@V?$_Tset_traits@U?$pair@PAVxf_t@xlslib_core@@UborderedXft@2@@std@@VxfSorter@xlslib_core@@V?$allocator@U?$pair@PAVxf_t@xlslib_core@@UborderedXft@2@@std@@@2@$0A@@std@@@std@@@std@@QAE?AV01@H@Z
	?integer@expression_node_factory_t@xlslib_core@@QAEPAVinteger_value_node_t@2@H@Z
	?floating_point@expression_node_factory_t@xlslib_core@@QAEPAVfloat_value_node_t@2@N@Z
	?error_value@expression_node_factory_t@xlslib_core@@QAEPAVerror_value_node_t@2@W4errcode_t@2@@Z
	??0?$allocator@PAVfont_t@xlslib_core@@@std@@QAE@ABV01@@Z
	?_Compat@?$_Vector_const_iterator@V?$_Vector_val@PAVformat_t@xlslib_core@@V?$allocator@PAVformat_t@xlslib_core@@@std@@@std@@@std@@QBEXABV12@@Z
	?missing_arg@expression_node_factory_t@xlslib_core@@QAEPAVmissing_arg_node_t@2@XZ
	?text@expression_node_factory_t@xlslib_core@@QAEPAVtext_value_node_t@2@ABV?$basic_string@GU?$char_traits@G@std@@V?$allocator@G@2@@std@@@Z
	?cell@expression_node_factory_t@xlslib_core@@QAEPAVcell_deref_node_t@2@ABVcell_t@2@W4cell_addr_mode_t@2@W4cell_op_class_t@2@@Z
	?cell@expression_node_factory_t@xlslib_core@@QAEPAVcell_deref_node_t@2@ABVcell_t@2@PBVworksheet@2@W4cell_addr_mode_t@2@W4cell_op_class_t@2@@Z
	?area@expression_node_factory_t@xlslib_core@@QAEPAVcellarea_deref_node_t@2@ABVcell_t@2@0W4cell_addr_mode_t@2@W4cell_op_class_t@2@@Z
	?op@expression_node_factory_t@xlslib_core@@QAEPAVbinary_op_node_t@2@W4expr_operator_code_t@2@PAVexpression_node_t@2@1@Z
	?f@expression_node_factory_t@xlslib_core@@QAEPAVunary_func_node_t@2@W4expr_function_code_t@2@PAVexpression_node_t@2@@Z
	??$_Dest_val@V?$allocator@Urowblocksize_t@xlslib_core@@@std@@Urowblocksize_t@xlslib_core@@@std@@YAXAAV?$allocator@Urowblocksize_t@xlslib_core@@@0@PAUrowblocksize_t@xlslib_core@@@Z
	?f@expression_node_factory_t@xlslib_core@@QAEPAVbinary_func_node_t@2@W4expr_function_code_t@2@PAVexpression_node_t@2@1@Z
	??1?$_Vector_val@PAVrange@xlslib_core@@V?$allocator@PAVrange@xlslib_core@@@std@@@std@@QAE@XZ
	?f@expression_node_factory_t@xlslib_core@@QAEPAVn_ary_func_node_t@2@W4expr_function_code_t@2@IPAPAVexpression_node_t@2@@Z
	?udf@expression_node_factory_t@xlslib_core@@QAEPAVuserdef_func_node_t@2@HIPAPAVexpression_node_t@2@@Z
	?SetSheetData@boundsheet_t@xlslib_core@@QAEPAVCBSheet@2@PAV32@@Z
	??1CBiffSection@xlslib_core@@UAE@XZ
	??E?$_List_const_iterator@V?$_List_val@PAV?$basic_string@DU?$char_traits@D@std@@V?$allocator@D@2@@std@@V?$allocator@PAV?$basic_string@DU?$char_traits@D@std@@V?$allocator@D@2@@std@@@2@@std@@@std@@QAE?AV01@H@Z
	?SetIndex@xf_t@xlslib_core@@AAEXG@Z
	?GetInSST@label_t@xlslib_core@@QBE_NXZ
	??0CBof@xlslib_core@@IAE@AAVCDataStorage@1@G@Z
	??0CGlobalRecords@xlslib_core@@QAE@XZ
	??$construct@AAUrowblocksize_t@xlslib_core@@@?$allocator@Urowblocksize_t@xlslib_core@@@std@@QAEXPAUrowblocksize_t@xlslib_core@@AAU23@@Z
	?EstimateNumBiffUnitsNeeded4Header@CGlobalRecords@xlslib_core@@QAEIXZ
	?DumpData@CGlobalRecords@xlslib_core@@QAEPAVCUnit@2@AAVCDataStorage@2@@Z
	?AddBoundingSheet@CGlobalRecords@xlslib_core@@QAEXIGAAV?$basic_string@GU?$char_traits@G@std@@V?$allocator@G@2@@std@@@Z
	?_Min@?$_Tree_val@V?$_Tset_traits@PAUcolinfo_t@xlslib_core@@Vcolinfosort@2@V?$allocator@PAUcolinfo_t@xlslib_core@@@std@@$0A@@std@@@std@@SAPAU_Node@?$_Tree_nod@V?$_Tset_traits@PAUcolinfo_t@xlslib_core@@Vcolinfosort@2@V?$allocator@PAUcolinfo_t@xlslib_core@@@std@@$0A@@std@@@2@PAU342@@Z
	?_Xlen@?$vector@NV?$allocator@N@std@@@std@@IBEXXZ
	?AddBoundingSheet@CGlobalRecords@xlslib_core@@QAEXPAVboundsheet_t@2@@Z
	?GetFirstBoundSheet@CGlobalRecords@xlslib_core@@QAE?AV?$_Vector_iterator@V?$_Vector_val@PAVboundsheet_t@xlslib_core@@V?$allocator@PAVboundsheet_t@xlslib_core@@@std@@@std@@@std@@XZ
	?GetBoundSheetAt@CGlobalRecords@xlslib_core@@QAE?AV?$_Vector_iterator@V?$_Vector_val@PAVboundsheet_t@xlslib_core@@V?$allocator@PAVboundsheet_t@xlslib_core@@@std@@@std@@@std@@I@Z
	?GetEndBoundSheet@CGlobalRecords@xlslib_core@@QAE?AV?$_Vector_iterator@V?$_Vector_val@PAVboundsheet_t@xlslib_core@@V?$allocator@PAVboundsheet_t@xlslib_core@@@std@@@std@@@std@@XZ
	?AddFormat@CGlobalRecords@xlslib_core@@QAEXPAVformat_t@2@@Z
	?AddFont@CGlobalRecords@xlslib_core@@QAEXPAVfont_t@2@@Z
	?GetDefaultFont@CGlobalRecords@xlslib_core@@QBEPAVfont_t@2@XZ
	?max_size@?$_Tree@V?$_Tset_traits@PAUcolinfo_t@xlslib_core@@Vcolinfosort@2@V?$allocator@PAUcolinfo_t@xlslib_core@@@std@@$0A@@std@@@std@@QBEIXZ
	?AddXFormat@CGlobalRecords@xlslib_core@@QAEXPAVxf_t@2@@Z
	?AddLabelSST@CGlobalRecords@xlslib_core@@QAEXABVlabel_t@2@@Z
	??8?$_Tree_const_iterator@V?$_Tree_val@V?$_Tset_traits@U?$pair@PAVxf_t@xlslib_core@@UborderedXft@2@@std@@VxfSorter@xlslib_core@@V?$allocator@U?$pair@PAVxf_t@xlslib_core@@UborderedXft@2@@std@@@2@$0A@@std@@@std@@@std@@QBE_NABV01@@Z
	?GetLabelSSTIndex@CGlobalRecords@xlslib_core@@QAEIABVlabel_t@2@@Z
	?DeleteLabelSST@CGlobalRecords@xlslib_core@@QAEXABVlabel_t@2@@Z
	?_Buynode@?$_Tree_val@V?$_Tset_traits@PAVrowheight_t@xlslib_core@@Vrowheightsort@2@V?$allocator@PAVrowheight_t@xlslib_core@@@std@@$0A@@std@@@std@@QAEPAU_Node@?$_Tree_nod@V?$_Tset_traits@PAVrowheight_t@xlslib_core@@Vrowheightsort@2@V?$allocator@PAVrowheight_t@xlslib_core@@@std@@$0A@@std@@@2@XZ
	??0?$vector@PAUDataValidation@xlslib_core@@V?$allocator@PAUDataValidation@xlslib_core@@@std@@@std@@QAE@XZ
	?GetDefaultXF@CGlobalRecords@xlslib_core@@QBEPAVxf_t@2@XZ
	?fontdup@CGlobalRecords@xlslib_core@@QBEPAVfont_t@2@E@Z
	?str16toascii@CGlobalRecords@xlslib_core@@QAEXABV?$basic_string@GU?$char_traits@G@std@@V?$allocator@G@2@@std@@AAV?$basic_string@DU?$char_traits@D@std@@V?$allocator@D@2@@4@@Z
	?_Inside@?$vector@PAVboundsheet_t@xlslib_core@@V?$allocator@PAVboundsheet_t@xlslib_core@@@std@@@std@@IBE_NPBQAVboundsheet_t@xlslib_core@@@Z
	?wide2str16@CGlobalRecords@xlslib_core@@QAEXABV?$basic_string@_WU?$char_traits@_W@std@@V?$allocator@_W@2@@std@@AAV?$basic_string@GU?$char_traits@G@std@@V?$allocator@G@2@@4@@Z
	?findXF@CGlobalRecords@xlslib_core@@IAEPAVxf_t@2@PAV32@@Z
	??0?$_Vector_val@PBVlabel_t@xlslib_core@@V?$allocator@PBVlabel_t@xlslib_core@@@std@@@std@@QAE@V?$allocator@PBVlabel_t@xlslib_core@@@1@@Z
	?push_back@?$basic_string@DU?$char_traits@D@std@@V?$allocator@D@2@@std@@QAEXD@Z
	?reserve@?$basic_string@DU?$char_traits@D@std@@V?$allocator@D@2@@std@@QAEXI@Z
	?clear@?$vector@PAVxf_t@xlslib_core@@V?$allocator@PAVxf_t@xlslib_core@@@std@@@std@@QAEXXZ
	?clear@?$vector@PAVrange@xlslib_core@@V?$allocator@PAVrange@xlslib_core@@@std@@@std@@QAEXXZ
	?clear@?$vector@PAUDataValidation@xlslib_core@@V?$allocator@PAUDataValidation@xlslib_core@@@std@@@std@@QAEXXZ
	?clear@?$vector@IV?$allocator@I@std@@@std@@QAEXXZ
	?clear@?$vector@PAVformula_t@xlslib_core@@V?$allocator@PAVformula_t@xlslib_core@@@std@@@std@@QAEXXZ
	?_Grow_to@?$vector@PAUDataValidation@xlslib_core@@V?$allocator@PAUDataValidation@xlslib_core@@@std@@@std@@IBEII@Z
	?clear@?$vector@PAUHyperLink@xlslib_core@@V?$allocator@PAUHyperLink@xlslib_core@@@std@@@std@@QAEXXZ
	?clear@?$vector@PAVboundsheet_t@xlslib_core@@V?$allocator@PAVboundsheet_t@xlslib_core@@@std@@@std@@QAEXXZ
	?clear@?$vector@PAVformat_t@xlslib_core@@V?$allocator@PAVformat_t@xlslib_core@@@std@@@std@@QAEXXZ
	?clear@?$vector@PAVfont_t@xlslib_core@@V?$allocator@PAVfont_t@xlslib_core@@@std@@@std@@QAEXXZ
	?clear@?$vector@PAVrange_t@xlslib_core@@V?$allocator@PAVrange_t@xlslib_core@@@std@@@std@@QAEXXZ
	?begin@?$basic_string@GU?$char_traits@G@std@@V?$allocator@G@2@@std@@QAE?AV?$_String_iterator@GU?$char_traits@G@std@@V?$allocator@G@2@@2@XZ
	?begin@?$basic_string@_WU?$char_traits@_W@std@@V?$allocator@_W@2@@std@@QBE?AV?$_String_const_iterator@_WU?$char_traits@_W@std@@V?$allocator@_W@2@@2@XZ
	??1?$_Tree@V?$_Tset_traits@PAUcolinfo_t@xlslib_core@@Vcolinfosort@2@V?$allocator@PAUcolinfo_t@xlslib_core@@@std@@$0A@@std@@@std@@QAE@XZ
	?push_back@?$basic_string@GU?$char_traits@G@std@@V?$allocator@G@2@@std@@QAEXG@Z
	?empty@?$vector@PAVfont_t@xlslib_core@@V?$allocator@PAVfont_t@xlslib_core@@@std@@@std@@QBE_NXZ
	?empty@?$vector@PAVworksheet@xlslib_core@@V?$allocator@PAVworksheet@xlslib_core@@@std@@@std@@QBE_NXZ
	?empty@?$vector@PAUDataValidation@xlslib_core@@V?$allocator@PAUDataValidation@xlslib_core@@@std@@@std@@QBE_NXZ
	?empty@?$vector@PAVformula_t@xlslib_core@@V?$allocator@PAVformula_t@xlslib_core@@@std@@@std@@QBE_NXZ
	?allocate@?$allocator@PAVformula_t@xlslib_core@@@std@@QAEPAPAVformula_t@xlslib_core@@I@Z
	?empty@?$vector@PAVCOleProp@xlslib_core@@V?$allocator@PAVCOleProp@xlslib_core@@@std@@@std@@QBE_NXZ
	?empty@?$vector@PAVrange_t@xlslib_core@@V?$allocator@PAVrange_t@xlslib_core@@@std@@@std@@QBE_NXZ
	??$_Cons_val@V?$allocator@PAVformula_t@xlslib_core@@@std@@PAVformula_t@xlslib_core@@ABQAV34@@std@@YAXAAV?$allocator@PAVformula_t@xlslib_core@@@0@PAPAVformula_t@xlslib_core@@ABQAV23@@Z
	?empty@?$vector@PAVrange@xlslib_core@@V?$allocator@PAVrange@xlslib_core@@@std@@@std@@QBE_NXZ
	??0?$_String_const_iterator@_WU?$char_traits@_W@std@@V?$allocator@_W@2@@std@@QAE@XZ
	?empty@?$vector@PAVxf_t@xlslib_core@@V?$allocator@PAVxf_t@xlslib_core@@@std@@@std@@QBE_NXZ
	?empty@?$vector@PBVlabel_t@xlslib_core@@V?$allocator@PBVlabel_t@xlslib_core@@@std@@@std@@QBE_NXZ
	?empty@?$vector@PAVformat_t@xlslib_core@@V?$allocator@PAVformat_t@xlslib_core@@@std@@@std@@QBE_NXZ
	?empty@?$vector@PAVboundsheet_t@xlslib_core@@V?$allocator@PAVboundsheet_t@xlslib_core@@@std@@@std@@QBE_NXZ
	?empty@?$vector@VCUnitStore@xlslib_core@@V?$allocator@VCUnitStore@xlslib_core@@@std@@@std@@QBE_NXZ
	??A?$vector@PAVfont_t@xlslib_core@@V?$allocator@PAVfont_t@xlslib_core@@@std@@@std@@QBEABQAVfont_t@xlslib_core@@I@Z
	??A?$vector@PAVworksheet@xlslib_core@@V?$allocator@PAVworksheet@xlslib_core@@@std@@@std@@QAEAAPAVworksheet@xlslib_core@@I@Z
	?deallocate@?$allocator@PAVCUnit@xlslib_core@@@std@@QAEXPAPAVCUnit@xlslib_core@@I@Z
	?pop_back@?$vector@PAVxf_t@xlslib_core@@V?$allocator@PAVxf_t@xlslib_core@@@std@@@std@@QAEXXZ
	?erase@?$vector@PBVlabel_t@xlslib_core@@V?$allocator@PBVlabel_t@xlslib_core@@@std@@@std@@QAE?AV?$_Vector_iterator@V?$_Vector_val@PBVlabel_t@xlslib_core@@V?$allocator@PBVlabel_t@xlslib_core@@@std@@@std@@@2@V?$_Vector_const_iterator@V?$_Vector_val@PBVlabel_t@xlslib_core@@V?$allocator@PBVlabel_t@xlslib_core@@@std@@@std@@@2@@Z
	?showpos@?$_Iosb@H@std@@2W4_Fmtflags@12@B
	??0?$_Tree_unchecked_const_iterator@V?$_Tree_val@V?$_Tset_traits@PAUcolinfo_t@xlslib_core@@Vcolinfosort@2@V?$allocator@PAUcolinfo_t@xlslib_core@@@std@@$0A@@std@@@std@@U_Iterator_base0@2@@std@@QAE@XZ
	??$_Cons_val@V?$allocator@PAVformula_t@xlslib_core@@@std@@PAVformula_t@xlslib_core@@AAPAV34@@std@@YAXAAV?$allocator@PAVformula_t@xlslib_core@@@0@PAPAVformula_t@xlslib_core@@AAPAV23@@Z
	??0?$_Tree_unchecked_const_iterator@V?$_Tree_val@V?$_Tset_traits@PAVcell_t@xlslib_core@@Vinsertsort@2@V?$allocator@PAVcell_t@xlslib_core@@@std@@$0A@@std@@@std@@U_Iterator_base0@2@@std@@QAE@XZ
	??0?$_Tree_const_iterator@V?$_Tree_val@V?$_Tset_traits@PAVcell_t@xlslib_core@@Vinsertsort@2@V?$allocator@PAVcell_t@xlslib_core@@@std@@$0A@@std@@@std@@@std@@QAE@XZ
	??0?$_String_const_iterator@DU?$char_traits@D@std@@V?$allocator@D@2@@std@@QAE@XZ
	??0?$_Tree_const_iterator@V?$_Tree_val@V?$_Tset_traits@PAUcolinfo_t@xlslib_core@@Vcolinfosort@2@V?$allocator@PAUcolinfo_t@xlslib_core@@@std@@$0A@@std@@@std@@@std@@QAE@XZ
	??0?$_Vector_val@VCUnitStore@xlslib_core@@V?$allocator@VCUnitStore@xlslib_core@@@std@@@std@@QAE@V?$allocator@VCUnitStore@xlslib_core@@@1@@Z
	??0?$_Tree_unchecked_const_iterator@V?$_Tree_val@V?$_Tset_traits@PAVHPSFitem@xlslib_core@@Vinsertsort2@2@V?$allocator@PAVHPSFitem@xlslib_core@@@std@@$0A@@std@@@std@@U_Iterator_base0@2@@std@@QAE@XZ
	??D?$_Vector_iterator@V?$_Vector_val@PAVworksheet@xlslib_core@@V?$allocator@PAVworksheet@xlslib_core@@@std@@@std@@@std@@QBEAAPAVworksheet@xlslib_core@@XZ
	??0?$_Tree_const_iterator@V?$_Tree_val@V?$_Tset_traits@PAVrowheight_t@xlslib_core@@Vrowheightsort@2@V?$allocator@PAVrowheight_t@xlslib_core@@@std@@$0A@@std@@@std@@@std@@QAE@XZ
	??0?$allocator@VCUnitStore@xlslib_core@@@std@@QAE@ABV01@@Z
	??0?$_Tree_const_iterator@V?$_Tree_val@V?$_Tset_traits@PAVHPSFitem@xlslib_core@@Vinsertsort2@2@V?$allocator@PAVHPSFitem@xlslib_core@@@std@@$0A@@std@@@std@@@std@@QAE@XZ
	??0?$_Tree_unchecked_const_iterator@V?$_Tree_val@V?$_Tset_traits@U?$pair@PAVxf_t@xlslib_core@@UborderedXft@2@@std@@VxfSorter@xlslib_core@@V?$allocator@U?$pair@PAVxf_t@xlslib_core@@UborderedXft@2@@std@@@2@$0A@@std@@@std@@U_Iterator_base0@2@@std@@QAE@XZ
	?_Grow_to@?$vector@IV?$allocator@I@std@@@std@@IBEII@Z
	??0?$_Tree_unchecked_const_iterator@V?$_Tree_val@V?$_Tset_traits@PAVrowheight_t@xlslib_core@@Vrowheightsort@2@V?$allocator@PAVrowheight_t@xlslib_core@@@std@@$0A@@std@@@std@@U_Iterator_base0@2@@std@@QAE@XZ
	??0colors_t@xlslib_core@@QAE@XZ
	?construct@?$allocator@PAVrange@xlslib_core@@@std@@QAEXPAPAVrange@xlslib_core@@ABQAV34@@Z
	??0?$_Tree_const_iterator@V?$_Tree_val@V?$_Tset_traits@U?$pair@PAVxf_t@xlslib_core@@UborderedXft@2@@std@@VxfSorter@xlslib_core@@V?$allocator@U?$pair@PAVxf_t@xlslib_core@@UborderedXft@2@@std@@@2@$0A@@std@@@std@@@std@@QAE@XZ
	?_Mynode@?$_Tree_unchecked_const_iterator@V?$_Tree_val@V?$_Tset_traits@PAVrowheight_t@xlslib_core@@Vrowheightsort@2@V?$allocator@PAVrowheight_t@xlslib_core@@@std@@$0A@@std@@@std@@U_Iterator_base0@2@@std@@QBEPAU_Node@?$_Tree_nod@V?$_Tset_traits@PAVrowheight_t@xlslib_core@@Vrowheightsort@2@V?$allocator@PAVrowheight_t@xlslib_core@@@std@@$0A@@std@@@2@XZ
	??D?$_Vector_const_iterator@V?$_Vector_val@PAVxf_t@xlslib_core@@V?$allocator@PAVxf_t@xlslib_core@@@std@@@std@@@std@@QBEABQAVxf_t@xlslib_core@@XZ
	??D?$_Vector_const_iterator@V?$_Vector_val@PAVrange@xlslib_core@@V?$allocator@PAVrange@xlslib_core@@@std@@@std@@@std@@QBEABQAVrange@xlslib_core@@XZ
	?_Unchecked@?$_Vector_iterator@V?$_Vector_val@PAVCOleProp@xlslib_core@@V?$allocator@PAVCOleProp@xlslib_core@@@std@@@std@@@std@@QBEPAPAVCOleProp@xlslib_core@@XZ
	??1?$_Vector_val@PAUHyperLink@xlslib_core@@V?$allocator@PAUHyperLink@xlslib_core@@@std@@@std@@QAE@XZ
	??D?$_Vector_const_iterator@V?$_Vector_val@PAVCOleProp@xlslib_core@@V?$allocator@PAVCOleProp@xlslib_core@@@std@@@std@@@std@@QBEABQAVCOleProp@xlslib_core@@XZ
	??D?$_Vector_const_iterator@V?$_Vector_val@PAUDataValidation@xlslib_core@@V?$allocator@PAUDataValidation@xlslib_core@@@std@@@std@@@std@@QBEABQAUDataValidation@xlslib_core@@XZ
	??D?$_Vector_iterator@V?$_Vector_val@PAUHyperLink@xlslib_core@@V?$allocator@PAUHyperLink@xlslib_core@@@std@@@std@@@std@@QBEAAPAUHyperLink@xlslib_core@@XZ
	??D?$_Vector_const_iterator@V?$_Vector_val@PBVlabel_t@xlslib_core@@V?$allocator@PBVlabel_t@xlslib_core@@@std@@@std@@@std@@QBEABQBVlabel_t@xlslib_core@@XZ
	??D?$_Vector_const_iterator@V?$_Vector_val@PAVformat_t@xlslib_core@@V?$allocator@PAVformat_t@xlslib_core@@@std@@@std@@@std@@QBEABQAVformat_t@xlslib_core@@XZ
	??1CDateMode@xlslib_core@@EAE@XZ
	??C?$_Vector_iterator@V?$_Vector_val@VCUnitStore@xlslib_core@@V?$allocator@VCUnitStore@xlslib_core@@@std@@@std@@@std@@QBEPAVCUnitStore@xlslib_core@@XZ
	??D?$_Vector_iterator@V?$_Vector_val@PAVboundsheet_t@xlslib_core@@V?$allocator@PAVboundsheet_t@xlslib_core@@@std@@@std@@@std@@QBEAAPAVboundsheet_t@xlslib_core@@XZ
	??D?$_Vector_iterator@V?$_Vector_val@PAVCOleProp@xlslib_core@@V?$allocator@PAVCOleProp@xlslib_core@@@std@@@std@@@std@@QBEAAPAVCOleProp@xlslib_core@@XZ
	?_Insert@?$_Tree@V?$_Tset_traits@U?$pair@PAVxf_t@xlslib_core@@UborderedXft@2@@std@@VxfSorter@xlslib_core@@V?$allocator@U?$pair@PAVxf_t@xlslib_core@@UborderedXft@2@@std@@@2@$0A@@std@@@std@@IAE?AV?$_Tree_const_iterator@V?$_Tree_val@V?$_Tset_traits@U?$pair@PAVxf_t@xlslib_core@@UborderedXft@2@@std@@VxfSorter@xlslib_core@@V?$allocator@U?$pair@PAVxf_t@xlslib_core@@UborderedXft@2@@std@@@2@$0A@@std@@@std@@@2@_NPAU_Node@?$_Tree_nod@V?$_Tset_traits@U?$pair@PAVxf_t@xlslib_core@@UborderedXft@2@@std@@VxfSorter@xlslib_core@@V?$allocator@U?$pair@PAVxf_t@xlslib_core@@UborderedXft@2@@std@@@2@$0A@@std@@@2@1@Z
	??D?$_Vector_iterator@V?$_Vector_val@PAVCUnit@xlslib_core@@V?$allocator@PAVCUnit@xlslib_core@@@std@@@std@@@std@@QBEAAPAVCUnit@xlslib_core@@XZ
	??D?$_Vector_const_iterator@V?$_Vector_val@PAVboundsheet_t@xlslib_core@@V?$allocator@PAVboundsheet_t@xlslib_core@@@std@@@std@@@std@@QBEABQAVboundsheet_t@xlslib_core@@XZ
	??D?$_String_const_iterator@_WU?$char_traits@_W@std@@V?$allocator@_W@2@@std@@QBEAB_WXZ
	??D?$_Vector_const_iterator@V?$_Vector_val@PAVCUnit@xlslib_core@@V?$allocator@PAVCUnit@xlslib_core@@@std@@@std@@@std@@QBEABQAVCUnit@xlslib_core@@XZ
	??D?$_Vector_const_iterator@V?$_Vector_val@PAVformula_t@xlslib_core@@V?$allocator@PAVformula_t@xlslib_core@@@std@@@std@@@std@@QBEABQAVformula_t@xlslib_core@@XZ
	??$_Ptr_cat@PAUHyperLink@xlslib_core@@PAU12@@std@@YA?AU_Scalar_ptr_iterator_tag@0@PAPAUHyperLink@xlslib_core@@0@Z
	?_Mynode@?$_Tree_unchecked_const_iterator@V?$_Tree_val@V?$_Tset_traits@PAVcell_t@xlslib_core@@Vinsertsort@2@V?$allocator@PAVcell_t@xlslib_core@@@std@@$0A@@std@@@std@@U_Iterator_base0@2@@std@@QBEPAU_Node@?$_Tree_nod@V?$_Tset_traits@PAVcell_t@xlslib_core@@Vinsertsort@2@V?$allocator@PAVcell_t@xlslib_core@@@std@@$0A@@std@@@2@XZ
	?formula@worksheet@xlslib_core@@QAEPAVcell_t@2@IIPAVformula_t@2@PAVxf_t@2@@Z
	?front@?$list@PAV?$basic_string@DU?$char_traits@D@std@@V?$allocator@D@2@@std@@V?$allocator@PAV?$basic_string@DU?$char_traits@D@std@@V?$allocator@D@2@@std@@@2@@std@@QAEAAPAV?$basic_string@DU?$char_traits@D@std@@V?$allocator@D@2@@2@XZ
	??D?$_Vector_iterator@V?$_Vector_val@PAVrange@xlslib_core@@V?$allocator@PAVrange@xlslib_core@@@std@@@std@@@std@@QBEAAPAVrange@xlslib_core@@XZ
	??D?$_Vector_iterator@V?$_Vector_val@PAUDataValidation@xlslib_core@@V?$allocator@PAUDataValidation@xlslib_core@@@std@@@std@@@std@@QBEAAPAUDataValidation@xlslib_core@@XZ
	?_Mynode@?$_List_unchecked_const_iterator@V?$_List_val@PAV?$basic_string@DU?$char_traits@D@std@@V?$allocator@D@2@@std@@V?$allocator@PAV?$basic_string@DU?$char_traits@D@std@@V?$allocator@D@2@@std@@@2@@std@@U_Iterator_base0@2@@std@@QBEPAU_Node@?$_List_nod@PAV?$basic_string@DU?$char_traits@D@std@@V?$allocator@D@2@@std@@V?$allocator@PAV?$basic_string@DU?$char_traits@D@std@@V?$allocator@D@2@@std@@@2@@2@XZ
	??D?$_Vector_iterator@V?$_Vector_val@PAVfont_t@xlslib_core@@V?$allocator@PAVfont_t@xlslib_core@@@std@@@std@@@std@@QBEAAPAVfont_t@xlslib_core@@XZ
	?_Mynode@?$_Tree_unchecked_const_iterator@V?$_Tree_val@V?$_Tset_traits@U?$pair@PAVxf_t@xlslib_core@@UborderedXft@2@@std@@VxfSorter@xlslib_core@@V?$allocator@U?$pair@PAVxf_t@xlslib_core@@UborderedXft@2@@std@@@2@$0A@@std@@@std@@U_Iterator_base0@2@@std@@QBEPAU_Node@?$_Tree_nod@V?$_Tset_traits@U?$pair@PAVxf_t@xlslib_core@@UborderedXft@2@@std@@VxfSorter@xlslib_core@@V?$allocator@U?$pair@PAVxf_t@xlslib_core@@UborderedXft@2@@std@@@2@$0A@@std@@@2@XZ
	??$_Move@PAPAVfont_t@xlslib_core@@PAPAV12@@std@@YAPAPAVfont_t@xlslib_core@@PAPAV12@00U_Scalar_ptr_iterator_tag@0@@Z
	?_Mynode@?$_Tree_unchecked_const_iterator@V?$_Tree_val@V?$_Tset_traits@PAUcolinfo_t@xlslib_core@@Vcolinfosort@2@V?$allocator@PAUcolinfo_t@xlslib_core@@@std@@$0A@@std@@@std@@U_Iterator_base0@2@@std@@QBEPAU_Node@?$_Tree_nod@V?$_Tset_traits@PAUcolinfo_t@xlslib_core@@Vcolinfosort@2@V?$allocator@PAUcolinfo_t@xlslib_core@@@std@@$0A@@std@@@2@XZ
	??D?$_Vector_iterator@V?$_Vector_val@VCUnitStore@xlslib_core@@V?$allocator@VCUnitStore@xlslib_core@@@std@@@std@@@std@@QBEAAVCUnitStore@xlslib_core@@XZ
	??D?$_String_const_iterator@GU?$char_traits@G@std@@V?$allocator@G@2@@std@@QBEABGXZ
	??D?$_Vector_iterator@V?$_Vector_val@IV?$allocator@I@std@@@std@@@std@@QBEAAIXZ
	??D?$_Vector_const_iterator@V?$_Vector_val@PAUstyle_t@xlslib_core@@V?$allocator@PAUstyle_t@xlslib_core@@@std@@@std@@@std@@QBEABQAUstyle_t@xlslib_core@@XZ
	?_Linsert@?$_Tree@V?$_Tset_traits@PAUcolinfo_t@xlslib_core@@Vcolinfosort@2@V?$allocator@PAUcolinfo_t@xlslib_core@@@std@@$0A@@std@@@std@@QAE?AU?$pair@V?$_Tree_const_iterator@V?$_Tree_val@V?$_Tset_traits@PAUcolinfo_t@xlslib_core@@Vcolinfosort@2@V?$allocator@PAUcolinfo_t@xlslib_core@@@std@@$0A@@std@@@std@@@std@@_N@2@PAU_Node@?$_Tree_nod@V?$_Tset_traits@PAUcolinfo_t@xlslib_core@@Vcolinfosort@2@V?$allocator@PAUcolinfo_t@xlslib_core@@@std@@$0A@@std@@@2@_N@Z
	??D?$_Vector_iterator@V?$_Vector_val@PBVlabel_t@xlslib_core@@V?$allocator@PBVlabel_t@xlslib_core@@@std@@@std@@@std@@QBEAAPBVlabel_t@xlslib_core@@XZ
	??D?$_Vector_const_iterator@V?$_Vector_val@VCUnitStore@xlslib_core@@V?$allocator@VCUnitStore@xlslib_core@@@std@@@std@@@std@@QBEABVCUnitStore@xlslib_core@@XZ
	?_Inside@?$vector@PAVCUnit@xlslib_core@@V?$allocator@PAVCUnit@xlslib_core@@@std@@@std@@IBE_NPBQAVCUnit@xlslib_core@@@Z
	??D?$_Vector_const_iterator@V?$_Vector_val@IV?$allocator@I@std@@@std@@@std@@QBEABIXZ
	?_Unchecked@?$_Vector_iterator@V?$_Vector_val@VCUnitStore@xlslib_core@@V?$allocator@VCUnitStore@xlslib_core@@@std@@@std@@@std@@QBEPAVCUnitStore@xlslib_core@@XZ
	?capacity@?$vector@PAVformat_t@xlslib_core@@V?$allocator@PAVformat_t@xlslib_core@@@std@@@std@@QBEIXZ
	?size@?$vector@PAVworksheet@xlslib_core@@V?$allocator@PAVworksheet@xlslib_core@@@std@@@std@@QBEIXZ
	??$_Umove@PAPAVboundsheet_t@xlslib_core@@@?$vector@PAVboundsheet_t@xlslib_core@@V?$allocator@PAVboundsheet_t@xlslib_core@@@std@@@std@@IAEPAPAVboundsheet_t@xlslib_core@@PAPAV23@00@Z
	??0HPSFitem@xlslib_core@@QAE@G_K@Z
	??D?$_Vector_iterator@V?$_Vector_val@PAVxf_t@xlslib_core@@V?$allocator@PAVxf_t@xlslib_core@@@std@@@std@@@std@@QBEAAPAVxf_t@xlslib_core@@XZ
	?_Mynode@?$_Tree_unchecked_const_iterator@V?$_Tree_val@V?$_Tset_traits@PAVHPSFitem@xlslib_core@@Vinsertsort2@2@V?$allocator@PAVHPSFitem@xlslib_core@@@std@@$0A@@std@@@std@@U_Iterator_base0@2@@std@@QBEPAU_Node@?$_Tree_nod@V?$_Tset_traits@PAVHPSFitem@xlslib_core@@Vinsertsort2@2@V?$allocator@PAVHPSFitem@xlslib_core@@@std@@$0A@@std@@@2@XZ
	??$?0PAVHPSFitem@xlslib_core@@@?$allocator@U_Node@?$_Tree_nod@V?$_Tset_traits@PAVHPSFitem@xlslib_core@@Vinsertsort2@2@V?$allocator@PAVHPSFitem@xlslib_core@@@std@@$0A@@std@@@std@@@std@@QAE@ABV?$allocator@PAVHPSFitem@xlslib_core@@@1@@Z
	??D?$_Vector_iterator@V?$_Vector_val@PAVrange_t@xlslib_core@@V?$allocator@PAVrange_t@xlslib_core@@@std@@@std@@@std@@QBEAAPAVrange_t@xlslib_core@@XZ
	??D?$_Vector_iterator@V?$_Vector_val@Urowblocksize_t@xlslib_core@@V?$allocator@Urowblocksize_t@xlslib_core@@@std@@@std@@@std@@QBEAAUrowblocksize_t@xlslib_core@@XZ
	??E?$_String_const_iterator@_WU?$char_traits@_W@std@@V?$allocator@_W@2@@std@@QAE?AV01@H@Z
	??E?$_String_const_iterator@GU?$char_traits@G@std@@V?$allocator@G@2@@std@@QAE?AV01@H@Z
	??E?$_String_const_iterator@DU?$char_traits@D@std@@V?$allocator@D@2@@std@@QAE?AV01@H@Z
	?construct@?$allocator@PAVrange_t@xlslib_core@@@std@@QAEXPAPAVrange_t@xlslib_core@@ABQAV34@@Z
	?insert@?$basic_string@DU?$char_traits@D@std@@V?$allocator@D@2@@std@@QAE?AV?$_String_iterator@DU?$char_traits@D@std@@V?$allocator@D@2@@2@V?$_String_const_iterator@DU?$char_traits@D@std@@V?$allocator@D@2@@2@D@Z
	??0?$_Tset_traits@PAVrowheight_t@xlslib_core@@Vrowheightsort@2@V?$allocator@PAVrowheight_t@xlslib_core@@@std@@$0A@@std@@QAE@Vrowheightsort@xlslib_core@@@Z
	?end@?$basic_string@DU?$char_traits@D@std@@V?$allocator@D@2@@std@@QAE?AV?$_String_iterator@DU?$char_traits@D@std@@V?$allocator@D@2@@2@XZ
	?deallocate@?$allocator@G@std@@QAEXPAGI@Z
	?erase@?$vector@PAVxf_t@xlslib_core@@V?$allocator@PAVxf_t@xlslib_core@@@std@@@std@@QAE?AV?$_Vector_iterator@V?$_Vector_val@PAVxf_t@xlslib_core@@V?$allocator@PAVxf_t@xlslib_core@@@std@@@std@@@2@V?$_Vector_const_iterator@V?$_Vector_val@PAVxf_t@xlslib_core@@V?$allocator@PAVxf_t@xlslib_core@@@std@@@std@@@2@0@Z
	??$addressof@QAVfont_t@xlslib_core@@@std@@YAPBQAVfont_t@xlslib_core@@ABQAV12@@Z
	?erase@?$vector@PAVCUnit@xlslib_core@@V?$allocator@PAVCUnit@xlslib_core@@@std@@@std@@QAE?AV?$_Vector_iterator@V?$_Vector_val@PAVCUnit@xlslib_core@@V?$allocator@PAVCUnit@xlslib_core@@@std@@@std@@@2@V?$_Vector_const_iterator@V?$_Vector_val@PAVCUnit@xlslib_core@@V?$allocator@PAVCUnit@xlslib_core@@@std@@@std@@@2@0@Z
	?erase@?$vector@PAUHyperLink@xlslib_core@@V?$allocator@PAUHyperLink@xlslib_core@@@std@@@std@@QAE?AV?$_Vector_iterator@V?$_Vector_val@PAUHyperLink@xlslib_core@@V?$allocator@PAUHyperLink@xlslib_core@@@std@@@std@@@2@V?$_Vector_const_iterator@V?$_Vector_val@PAUHyperLink@xlslib_core@@V?$allocator@PAUHyperLink@xlslib_core@@@std@@@std@@@2@0@Z
	?erase@?$vector@PAVboundsheet_t@xlslib_core@@V?$allocator@PAVboundsheet_t@xlslib_core@@@std@@@std@@QAE?AV?$_Vector_iterator@V?$_Vector_val@PAVboundsheet_t@xlslib_core@@V?$allocator@PAVboundsheet_t@xlslib_core@@@std@@@std@@@2@V?$_Vector_const_iterator@V?$_Vector_val@PAVboundsheet_t@xlslib_core@@V?$allocator@PAVboundsheet_t@xlslib_core@@@std@@@std@@@2@0@Z
	?erase@?$vector@PAVfont_t@xlslib_core@@V?$allocator@PAVfont_t@xlslib_core@@@std@@@std@@QAE?AV?$_Vector_iterator@V?$_Vector_val@PAVfont_t@xlslib_core@@V?$allocator@PAVfont_t@xlslib_core@@@std@@@std@@@2@V?$_Vector_const_iterator@V?$_Vector_val@PAVfont_t@xlslib_core@@V?$allocator@PAVfont_t@xlslib_core@@@std@@@std@@@2@0@Z
	?erase@?$vector@PAVformula_t@xlslib_core@@V?$allocator@PAVformula_t@xlslib_core@@@std@@@std@@QAE?AV?$_Vector_iterator@V?$_Vector_val@PAVformula_t@xlslib_core@@V?$allocator@PAVformula_t@xlslib_core@@@std@@@std@@@2@V?$_Vector_const_iterator@V?$_Vector_val@PAVformula_t@xlslib_core@@V?$allocator@PAVformula_t@xlslib_core@@@std@@@std@@@2@0@Z
	?erase@?$vector@PAVrange@xlslib_core@@V?$allocator@PAVrange@xlslib_core@@@std@@@std@@QAE?AV?$_Vector_iterator@V?$_Vector_val@PAVrange@xlslib_core@@V?$allocator@PAVrange@xlslib_core@@@std@@@std@@@2@V?$_Vector_const_iterator@V?$_Vector_val@PAVrange@xlslib_core@@V?$allocator@PAVrange@xlslib_core@@@std@@@std@@@2@0@Z
	?erase@?$vector@PAVformat_t@xlslib_core@@V?$allocator@PAVformat_t@xlslib_core@@@std@@@std@@QAE?AV?$_Vector_iterator@V?$_Vector_val@PAVformat_t@xlslib_core@@V?$allocator@PAVformat_t@xlslib_core@@@std@@@std@@@2@V?$_Vector_const_iterator@V?$_Vector_val@PAVformat_t@xlslib_core@@V?$allocator@PAVformat_t@xlslib_core@@@std@@@std@@@2@0@Z
	??F?$_Vector_iterator@V?$_Vector_val@PAVCOleProp@xlslib_core@@V?$allocator@PAVCOleProp@xlslib_core@@@std@@@std@@@std@@QAEAAV01@XZ
	?deallocate@?$allocator@U_Node@?$_Tree_nod@V?$_Tset_traits@PAUcolinfo_t@xlslib_core@@Vcolinfosort@2@V?$allocator@PAUcolinfo_t@xlslib_core@@@std@@$0A@@std@@@std@@@std@@QAEXPAU_Node@?$_Tree_nod@V?$_Tset_traits@PAUcolinfo_t@xlslib_core@@Vcolinfosort@2@V?$allocator@PAUcolinfo_t@xlslib_core@@@std@@$0A@@std@@@2@I@Z
	?insert@?$basic_string@GU?$char_traits@G@std@@V?$allocator@G@2@@std@@QAE?AV?$_String_iterator@GU?$char_traits@G@std@@V?$allocator@G@2@@2@V?$_String_const_iterator@GU?$char_traits@G@std@@V?$allocator@G@2@@2@G@Z
	?end@?$basic_string@_WU?$char_traits@_W@std@@V?$allocator@_W@2@@std@@QBE?AV?$_String_const_iterator@_WU?$char_traits@_W@std@@V?$allocator@_W@2@@2@XZ
	?end@?$basic_string@GU?$char_traits@G@std@@V?$allocator@G@2@@std@@QAE?AV?$_String_iterator@GU?$char_traits@G@std@@V?$allocator@G@2@@2@XZ
	??$addressof@QAVboundsheet_t@xlslib_core@@@std@@YAPBQAVboundsheet_t@xlslib_core@@ABQAV12@@Z
	?end@?$basic_string@GU?$char_traits@G@std@@V?$allocator@G@2@@std@@QBE?AV?$_String_const_iterator@GU?$char_traits@G@std@@V?$allocator@G@2@@2@XZ
	??$forward@ABV?$basic_string@_WU?$char_traits@_W@std@@V?$allocator@_W@2@@std@@@std@@YAABV?$basic_string@_WU?$char_traits@_W@std@@V?$allocator@_W@2@@0@ABV10@@Z
	??D?$_List_iterator@V?$_List_val@PAV?$basic_string@DU?$char_traits@D@std@@V?$allocator@D@2@@std@@V?$allocator@PAV?$basic_string@DU?$char_traits@D@std@@V?$allocator@D@2@@std@@@2@@std@@@std@@QBEAAPAV?$basic_string@DU?$char_traits@D@std@@V?$allocator@D@2@@1@XZ
	??E?$_String_const_iterator@GU?$char_traits@G@std@@V?$allocator@G@2@@std@@QAEAAV01@XZ
	??$_Construct@PAVrange@xlslib_core@@ABQAV12@@std@@YAXPAPAVrange@xlslib_core@@ABQAV12@@Z
	??0?$allocator@U?$pair@PAVxf_t@xlslib_core@@UborderedXft@2@@std@@@std@@QAE@XZ
	??E?$_String_const_iterator@DU?$char_traits@D@std@@V?$allocator@D@2@@std@@QAEAAV01@XZ
	??9?$_Vector_const_iterator@V?$_Vector_val@PAVCOleProp@xlslib_core@@V?$allocator@PAVCOleProp@xlslib_core@@@std@@@std@@@std@@QBE_NABV01@@Z
	?_Pdif@?$basic_string@DU?$char_traits@D@std@@V?$allocator@D@2@@std@@SAIV?$_String_const_iterator@DU?$char_traits@D@std@@V?$allocator@D@2@@2@0@Z
	?capacity@?$vector@IV?$allocator@I@std@@@std@@QBEIXZ
	?capacity@?$vector@PAVrange_t@xlslib_core@@V?$allocator@PAVrange_t@xlslib_core@@@std@@@std@@QBEIXZ
	?overflow@?$basic_filebuf@DU?$char_traits@D@std@@@std@@MAEHH@Z
	?capacity@?$vector@PAVCOleProp@xlslib_core@@V?$allocator@PAVCOleProp@xlslib_core@@@std@@@std@@QBEIXZ
	??$_Ptr_cat@PAVfont_t@xlslib_core@@PAV12@@std@@YA?AU_Scalar_ptr_iterator_tag@0@PAPAVfont_t@xlslib_core@@0@Z
	?capacity@?$vector@PAUDataValidation@xlslib_core@@V?$allocator@PAUDataValidation@xlslib_core@@@std@@@std@@QBEIXZ
	?capacity@?$vector@PAVCUnit@xlslib_core@@V?$allocator@PAVCUnit@xlslib_core@@@std@@@std@@QBEIXZ
	?capacity@?$vector@PBVlabel_t@xlslib_core@@V?$allocator@PBVlabel_t@xlslib_core@@@std@@@std@@QBEIXZ
	?capacity@?$vector@PAVboundsheet_t@xlslib_core@@V?$allocator@PAVboundsheet_t@xlslib_core@@@std@@@std@@QBEIXZ
	?_Grow_to@?$vector@PAUstyle_t@xlslib_core@@V?$allocator@PAUstyle_t@xlslib_core@@@std@@@std@@IBEII@Z
	?capacity@?$vector@PAVworksheet@xlslib_core@@V?$allocator@PAVworksheet@xlslib_core@@@std@@@std@@QBEIXZ
	?capacity@?$vector@PAVrange@xlslib_core@@V?$allocator@PAVrange@xlslib_core@@@std@@@std@@QBEIXZ
	?capacity@?$vector@PAVformula_t@xlslib_core@@V?$allocator@PAVformula_t@xlslib_core@@@std@@@std@@QBEIXZ
	?MakeDataValidationHeader@worksheet@xlslib_core@@AAEPAVCUnit@2@AAVCDataStorage@2@I@Z
	?_Grow_to@?$vector@PAVformula_t@xlslib_core@@V?$allocator@PAVformula_t@xlslib_core@@@std@@@std@@IBEII@Z
	?_Grow_to@?$vector@PAVrange_t@xlslib_core@@V?$allocator@PAVrange_t@xlslib_core@@@std@@@std@@IBEII@Z
	?_Grow_to@?$vector@PAVCUnit@xlslib_core@@V?$allocator@PAVCUnit@xlslib_core@@@std@@@std@@IBEII@Z
	?_Rrotate@?$_Tree@V?$_Tset_traits@U?$pair@PAVxf_t@xlslib_core@@UborderedXft@2@@std@@VxfSorter@xlslib_core@@V?$allocator@U?$pair@PAVxf_t@xlslib_core@@UborderedXft@2@@std@@@2@$0A@@std@@@std@@IAEXPAU_Node@?$_Tree_nod@V?$_Tset_traits@U?$pair@PAVxf_t@xlslib_core@@UborderedXft@2@@std@@VxfSorter@xlslib_core@@V?$allocator@U?$pair@PAVxf_t@xlslib_core@@UborderedXft@2@@std@@@2@$0A@@std@@@2@@Z
	?_Grow_to@?$vector@PAVCOleProp@xlslib_core@@V?$allocator@PAVCOleProp@xlslib_core@@@std@@@std@@IBEII@Z
	?_Max@?$_Tree_val@V?$_Tset_traits@PAVHPSFitem@xlslib_core@@Vinsertsort2@2@V?$allocator@PAVHPSFitem@xlslib_core@@@std@@$0A@@std@@@std@@SAPAU_Node@?$_Tree_nod@V?$_Tset_traits@PAVHPSFitem@xlslib_core@@Vinsertsort2@2@V?$allocator@PAVHPSFitem@xlslib_core@@@std@@$0A@@std@@@2@PAU342@@Z
	?_Grow_to@?$vector@PAVfont_t@xlslib_core@@V?$allocator@PAVfont_t@xlslib_core@@@std@@@std@@IBEII@Z
	??$_Move@PAPAVCUnit@xlslib_core@@PAPAV12@@std@@YAPAPAVCUnit@xlslib_core@@PAPAV12@00U_Scalar_ptr_iterator_tag@0@@Z
	?_Grow_to@?$vector@PAVformat_t@xlslib_core@@V?$allocator@PAVformat_t@xlslib_core@@@std@@@std@@IBEII@Z
	?_Grow_to@?$vector@PAVrange@xlslib_core@@V?$allocator@PAVrange@xlslib_core@@@std@@@std@@IBEII@Z
	?allocate@?$allocator@U_Node@?$_List_nod@PAV?$basic_string@DU?$char_traits@D@std@@V?$allocator@D@2@@std@@V?$allocator@PAV?$basic_string@DU?$char_traits@D@std@@V?$allocator@D@2@@std@@@2@@std@@@std@@QAEPAU_Node@?$_List_nod@PAV?$basic_string@DU?$char_traits@D@std@@V?$allocator@D@2@@std@@V?$allocator@PAV?$basic_string@DU?$char_traits@D@std@@V?$allocator@D@2@@std@@@2@@2@I@Z
	?_Grow_to@?$vector@PAVworksheet@xlslib_core@@V?$allocator@PAVworksheet@xlslib_core@@@std@@@std@@IBEII@Z
	?_Insert@?$_Tree@V?$_Tset_traits@PAVHPSFitem@xlslib_core@@Vinsertsort2@2@V?$allocator@PAVHPSFitem@xlslib_core@@@std@@$0A@@std@@@std@@IAE?AV?$_Tree_const_iterator@V?$_Tree_val@V?$_Tset_traits@PAVHPSFitem@xlslib_core@@Vinsertsort2@2@V?$allocator@PAVHPSFitem@xlslib_core@@@std@@$0A@@std@@@std@@@2@_NPAU_Node@?$_Tree_nod@V?$_Tset_traits@PAVHPSFitem@xlslib_core@@Vinsertsort2@2@V?$allocator@PAVHPSFitem@xlslib_core@@@std@@$0A@@std@@@2@1@Z
	?substr@?$basic_string@DU?$char_traits@D@std@@V?$allocator@D@2@@std@@QBE?AV12@II@Z
	?_Grow_to@?$vector@PAVxf_t@xlslib_core@@V?$allocator@PAVxf_t@xlslib_core@@@std@@@std@@IBEII@Z
	?DumpNode@COleDoc@xlslib_core@@AAEHAAVCOleProp@2@@Z
	?_Grow_to@?$vector@PAUHyperLink@xlslib_core@@V?$allocator@PAUHyperLink@xlslib_core@@@std@@@std@@IBEII@Z
	?_Grow_to@?$vector@PAVboundsheet_t@xlslib_core@@V?$allocator@PAVboundsheet_t@xlslib_core@@@std@@@std@@IBEII@Z
	?_Grow_to@?$vector@PBVlabel_t@xlslib_core@@V?$allocator@PBVlabel_t@xlslib_core@@@std@@@std@@IBEII@Z
	?insert@?$basic_string@GU?$char_traits@G@std@@V?$allocator@G@2@@std@@QAEAAV12@IIG@Z
	?_Pdif@?$basic_string@GU?$char_traits@G@std@@V?$allocator@G@2@@std@@SAIV?$_String_const_iterator@GU?$char_traits@G@std@@V?$allocator@G@2@@2@0@Z
	??$_Uninit_move@PAUstyle_t@xlslib_core@@PAU12@PAU12@@std@@YAPAPAUstyle_t@xlslib_core@@PAPAU12@00AAV?$allocator@PAUstyle_t@xlslib_core@@@0@0U_Scalar_ptr_iterator_tag@0@@Z
	?max_size@?$allocator@PAVxf_t@xlslib_core@@@std@@QBEIXZ
	?max_size@?$allocator@PAVcell_t@xlslib_core@@@std@@QBEIXZ
	?mk_obj_NTS_SubRecord@CNote@xlslib_core@@IAEXPBVnote_t@2@@Z
	??$_Uninit_move@III@std@@YAPAIPAI00AAV?$allocator@I@0@0U_Scalar_ptr_iterator_tag@0@@Z
	?max_size@?$vector@PAUstyle_t@xlslib_core@@V?$allocator@PAUstyle_t@xlslib_core@@@std@@@std@@QBEIXZ
	?max_size@?$allocator@PAVrange_t@xlslib_core@@@std@@QBEIXZ
	?max_size@?$allocator@PAVboundsheet_t@xlslib_core@@@std@@QBEIXZ
	?max_size@?$allocator@PAVCUnit@xlslib_core@@@std@@QBEIXZ
	?max_size@?$allocator@PAVrange@xlslib_core@@@std@@QBEIXZ
	?max_size@?$vector@PAUHyperLink@xlslib_core@@V?$allocator@PAUHyperLink@xlslib_core@@@std@@@std@@QBEIXZ
	?max_size@?$allocator@PAUcolinfo_t@xlslib_core@@@std@@QBEIXZ
	??1CFormat@xlslib_core@@EAE@XZ
	?max_size@?$allocator@PBVlabel_t@xlslib_core@@@std@@QBEIXZ
	??1CUnit@xlslib_core@@UAE@XZ
	?max_size@?$allocator@PAVCOleProp@xlslib_core@@@std@@QBEIXZ
	?_Right@?$_Tree_val@V?$_Tset_traits@PAVHPSFitem@xlslib_core@@Vinsertsort2@2@V?$allocator@PAVHPSFitem@xlslib_core@@@std@@$0A@@std@@@std@@SAAAPAU_Node@?$_Tree_nod@V?$_Tset_traits@PAVHPSFitem@xlslib_core@@Vinsertsort2@2@V?$allocator@PAVHPSFitem@xlslib_core@@@std@@$0A@@std@@@2@PAU342@@Z
	?max_size@?$allocator@PAVformula_t@xlslib_core@@@std@@QBEIXZ
	?dec@?$_Iosb@H@std@@2W4_Fmtflags@12@B
	?max_size@?$allocator@I@std@@QBEIXZ
	??$_Move@PAIPAI@std@@YAPAIPAI00U_Scalar_ptr_iterator_tag@0@@Z
	?max_size@?$allocator@PAVworksheet@xlslib_core@@@std@@QBEIXZ
	??$forward@AAPAVrowheight_t@xlslib_core@@@std@@YAAAPAVrowheight_t@xlslib_core@@AAPAV12@@Z
	??0rowheight_t@xlslib_core@@QAE@IGPAVxf_t@1@@Z
	?max_size@?$vector@PAVrange_t@xlslib_core@@V?$allocator@PAVrange_t@xlslib_core@@@std@@@std@@QBEIXZ
	?max_size@?$allocator@PAUstyle_t@xlslib_core@@@std@@QBEIXZ
	?GetAuthor@note_t@xlslib_core@@QBEABV?$basic_string@GU?$char_traits@G@std@@V?$allocator@G@2@@std@@XZ
	?_Left@?$_Tree_val@V?$_Tset_traits@PAVHPSFitem@xlslib_core@@Vinsertsort2@2@V?$allocator@PAVHPSFitem@xlslib_core@@@std@@$0A@@std@@@std@@SAAAPAU_Node@?$_Tree_nod@V?$_Tset_traits@PAVHPSFitem@xlslib_core@@Vinsertsort2@2@V?$allocator@PAVHPSFitem@xlslib_core@@@std@@$0A@@std@@@2@PAU342@@Z
	?get_allocator@?$basic_string@DU?$char_traits@D@std@@V?$allocator@D@2@@std@@QBE?AV?$allocator@D@2@XZ
	?max_size@?$vector@PAUDataValidation@xlslib_core@@V?$allocator@PAUDataValidation@xlslib_core@@@std@@@std@@QBEIXZ
	?max_size@?$vector@PAVCUnit@xlslib_core@@V?$allocator@PAVCUnit@xlslib_core@@@std@@@std@@QBEIXZ
	?max_size@?$allocator@PAVfont_t@xlslib_core@@@std@@QBEIXZ
	?max_size@?$allocator@PAUHyperLink@xlslib_core@@@std@@QBEIXZ
	?max_size@?$allocator@PAVrowheight_t@xlslib_core@@@std@@QBEIXZ
	?max_size@?$vector@PAVformat_t@xlslib_core@@V?$allocator@PAVformat_t@xlslib_core@@@std@@@std@@QBEIXZ
	?max_size@?$vector@PAVxf_t@xlslib_core@@V?$allocator@PAVxf_t@xlslib_core@@@std@@@std@@QBEIXZ
	?AddNode@COleFileSystem@xlslib_core@@QAEHPAVCOleProp@2@AAV?$list@PAV?$basic_string@DU?$char_traits@D@std@@V?$allocator@D@2@@std@@V?$allocator@PAV?$basic_string@DU?$char_traits@D@std@@V?$allocator@D@2@@std@@@2@@std@@@Z
	?max_size@?$vector@PAVformula_t@xlslib_core@@V?$allocator@PAVformula_t@xlslib_core@@@std@@@std@@QBEIXZ
	?max_size@?$vector@PAVrange@xlslib_core@@V?$allocator@PAVrange@xlslib_core@@@std@@@std@@QBEIXZ
	?max_size@?$_Tree@V?$_Tset_traits@PAVrowheight_t@xlslib_core@@Vrowheightsort@2@V?$allocator@PAVrowheight_t@xlslib_core@@@std@@$0A@@std@@@std@@QBEIXZ
	??0?$allocator@V?$basic_string@_WU?$char_traits@_W@std@@V?$allocator@_W@2@@std@@@std@@QAE@ABV01@@Z
	?max_size@?$vector@IV?$allocator@I@std@@@std@@QBEIXZ
	?max_size@?$vector@PAVfont_t@xlslib_core@@V?$allocator@PAVfont_t@xlslib_core@@@std@@@std@@QBEIXZ
	?max_size@?$allocator@PAVformat_t@xlslib_core@@@std@@QBEIXZ
	?max_size@?$allocator@PAVHPSFitem@xlslib_core@@@std@@QBEIXZ
	?max_size@?$vector@PAVworksheet@xlslib_core@@V?$allocator@PAVworksheet@xlslib_core@@@std@@@std@@QBEIXZ
	?max_size@?$allocator@PAUDataValidation@xlslib_core@@@std@@QBEIXZ
	?max_size@?$_Tree@V?$_Tset_traits@PAVHPSFitem@xlslib_core@@Vinsertsort2@2@V?$allocator@PAVHPSFitem@xlslib_core@@@std@@$0A@@std@@@std@@QBEIXZ
	?max_size@?$vector@PAVboundsheet_t@xlslib_core@@V?$allocator@PAVboundsheet_t@xlslib_core@@@std@@@std@@QBEIXZ
	?_Left@?$_Tree_val@V?$_Tset_traits@PAUcolinfo_t@xlslib_core@@Vcolinfosort@2@V?$allocator@PAUcolinfo_t@xlslib_core@@@std@@$0A@@std@@@std@@SAAAPAU_Node@?$_Tree_nod@V?$_Tset_traits@PAUcolinfo_t@xlslib_core@@Vcolinfosort@2@V?$allocator@PAUcolinfo_t@xlslib_core@@@std@@$0A@@std@@@2@PAU342@@Z
	?_Destroy@?$vector@PAVrange@xlslib_core@@V?$allocator@PAVrange@xlslib_core@@@std@@@std@@IAEXPAPAVrange@xlslib_core@@0@Z
	??0?$allocator@PAVHPSFitem@xlslib_core@@@std@@QAE@XZ
	?DumpOleFile@COleDoc@xlslib_core@@QAEHXZ
	?_Orphan_range@?$vector@PAUstyle_t@xlslib_core@@V?$allocator@PAUstyle_t@xlslib_core@@@std@@@std@@IBEXPAPAUstyle_t@xlslib_core@@0@Z
	??$_Destroy_range@V?$allocator@PAVboundsheet_t@xlslib_core@@@std@@@std@@YAXPAPAVboundsheet_t@xlslib_core@@0AAV?$allocator@PAVboundsheet_t@xlslib_core@@@0@U_Scalar_ptr_iterator_tag@0@@Z
	??$_Uninitialized_move@PAPAVformat_t@xlslib_core@@PAPAV12@V?$allocator@PAVformat_t@xlslib_core@@@std@@@std@@YAPAPAVformat_t@xlslib_core@@PAPAV12@00AAV?$allocator@PAVformat_t@xlslib_core@@@0@@Z
	??0?$allocator@PAVfont_t@xlslib_core@@@std@@QAE@XZ
	?fontunderline@range@xlslib_core@@UAEXW4underline_option_t@2@@Z
	??$forward@AAUrowblocksize_t@xlslib_core@@@std@@YAAAUrowblocksize_t@xlslib_core@@AAU12@@Z
	?construct@?$allocator@PAUHyperLink@xlslib_core@@@std@@QAEXPAPAUHyperLink@xlslib_core@@ABQAU34@@Z
	??$_Destroy_range@V?$allocator@PAVfont_t@xlslib_core@@@std@@@std@@YAXPAPAVfont_t@xlslib_core@@0AAV?$allocator@PAVfont_t@xlslib_core@@@0@@Z
	??1?$_Vector_val@V?$basic_string@_WU?$char_traits@_W@std@@V?$allocator@_W@2@@std@@V?$allocator@V?$basic_string@_WU?$char_traits@_W@std@@V?$allocator@_W@2@@std@@@2@@std@@QAE@XZ
	?end@?$_Tree@V?$_Tset_traits@U?$pair@PAVxf_t@xlslib_core@@UborderedXft@2@@std@@VxfSorter@xlslib_core@@V?$allocator@U?$pair@PAVxf_t@xlslib_core@@UborderedXft@2@@std@@@2@$0A@@std@@@std@@QAE?AV?$_Tree_const_iterator@V?$_Tree_val@V?$_Tset_traits@U?$pair@PAVxf_t@xlslib_core@@UborderedXft@2@@std@@VxfSorter@xlslib_core@@V?$allocator@U?$pair@PAVxf_t@xlslib_core@@UborderedXft@2@@std@@@2@$0A@@std@@@std@@@2@XZ
	?_Compat@?$_Vector_const_iterator@V?$_Vector_val@PAVrange_t@xlslib_core@@V?$allocator@PAVrange_t@xlslib_core@@@std@@@std@@@std@@QBEXABV12@@Z
	?destroy@?$allocator@U_Node@?$_List_nod@PAV?$basic_string@DU?$char_traits@D@std@@V?$allocator@D@2@@std@@V?$allocator@PAV?$basic_string@DU?$char_traits@D@std@@V?$allocator@D@2@@std@@@2@@std@@@std@@QAEXPAU_Node@?$_List_nod@PAV?$basic_string@DU?$char_traits@D@std@@V?$allocator@D@2@@std@@V?$allocator@PAV?$basic_string@DU?$char_traits@D@std@@V?$allocator@D@2@@std@@@2@@2@@Z
	??$forward@AAV?$basic_string@_WU?$char_traits@_W@std@@V?$allocator@_W@2@@std@@@std@@YAAAV?$basic_string@_WU?$char_traits@_W@std@@V?$allocator@_W@2@@0@AAV10@@Z
	?_Inside@?$vector@NV?$allocator@N@std@@@std@@IBE_NPBN@Z
	??$forward@AAPAUHyperLink@xlslib_core@@@std@@YAAAPAUHyperLink@xlslib_core@@AAPAU12@@Z
	?_Rank@?$_Arithmetic_traits@F@std@@2HB
	?_Orphan_range@?$vector@PAVrange_t@xlslib_core@@V?$allocator@PAVrange_t@xlslib_core@@@std@@@std@@IBEXPAPAVrange_t@xlslib_core@@0@Z
	??$forward@AAN@std@@YAAANAAN@Z
	??$?0AAV?$_Tree_const_iterator@V?$_Tree_val@V?$_Tset_traits@U?$pair@PAVxf_t@xlslib_core@@UborderedXft@2@@std@@VxfSorter@xlslib_core@@V?$allocator@U?$pair@PAVxf_t@xlslib_core@@UborderedXft@2@@std@@@2@$0A@@std@@@std@@@std@@_N@?$_Pair_base@V?$_Tree_const_iterator@V?$_Tree_val@V?$_Tset_traits@U?$pair@PAVxf_t@xlslib_core@@UborderedXft@2@@std@@VxfSorter@xlslib_core@@V?$allocator@U?$pair@PAVxf_t@xlslib_core@@UborderedXft@2@@std@@@2@$0A@@std@@@std@@@std@@_N@std@@QAE@AAV?$_Tree_const_iterator@V?$_Tree_val@V?$_Tset_traits@U?$pair@PAVxf_t@xlslib_core@@UborderedXft@2@@std@@VxfSorter@xlslib_core@@V?$allocator@U?$pair@PAVxf_t@xlslib_core@@UborderedXft@2@@std@@@2@$0A@@std@@@std@@@1@$$QA_N@Z
	??1?$_Vector_val@PAVworksheet@xlslib_core@@V?$allocator@PAVworksheet@xlslib_core@@@std@@@std@@QAE@XZ
	??1?$_Vector_val@PAUDataValidation@xlslib_core@@V?$allocator@PAUDataValidation@xlslib_core@@@std@@@std@@QAE@XZ
	??$_Destroy@U?$pair@PAVxf_t@xlslib_core@@UborderedXft@2@@std@@@std@@YAXPAU?$pair@PAVxf_t@xlslib_core@@UborderedXft@2@@0@@Z
	??$_Destroy_range@V?$allocator@I@std@@@std@@YAXPAI0AAV?$allocator@I@0@@Z
	?_Orphan_range@?$vector@NV?$allocator@N@std@@@std@@IBEXPAN0@Z
	??1?$_Vector_val@PAVxf_t@xlslib_core@@V?$allocator@PAVxf_t@xlslib_core@@@std@@@std@@QAE@XZ
	??0?$allocator@PAUDataValidation@xlslib_core@@@std@@QAE@ABV01@@Z
	??$_Move@AAD@std@@YA$$QADAAD@Z
	?GetName@COleProp@xlslib_core@@QBEABV?$basic_string@DU?$char_traits@D@std@@V?$allocator@D@2@@std@@XZ
	??$_Destroy_range@V?$allocator@PAUDataValidation@xlslib_core@@@std@@@std@@YAXPAPAUDataValidation@xlslib_core@@0AAV?$allocator@PAUDataValidation@xlslib_core@@@0@@Z
	??$_Iter_cat@V?$_Tree_const_iterator@V?$_Tree_val@V?$_Tset_traits@PAVcell_t@xlslib_core@@Vinsertsort@2@V?$allocator@PAVcell_t@xlslib_core@@@std@@$0A@@std@@@std@@@std@@@std@@YA?AUbidirectional_iterator_tag@0@ABV?$_Tree_const_iterator@V?$_Tree_val@V?$_Tset_traits@PAVcell_t@xlslib_core@@Vinsertsort@2@V?$allocator@PAVcell_t@xlslib_core@@@std@@$0A@@std@@@std@@@0@@Z
	??0xf_i@xlslib_core@@QAE@XZ
	?MakeDataValidationEntry@worksheet@xlslib_core@@AAEPAVCUnit@2@AAVCDataStorage@2@PAUDataValidation@2@@Z
	?_Compat@?$_Vector_const_iterator@V?$_Vector_val@PAUDataValidation@xlslib_core@@V?$allocator@PAUDataValidation@xlslib_core@@@std@@@std@@@std@@QBEXABV12@@Z
	?open@?$basic_filebuf@DU?$char_traits@D@std@@@std@@QAEPAV12@PBDHH@Z
	??0?$allocator@PAVrange_t@xlslib_core@@@std@@QAE@XZ
	??$addressof@PAVcell_t@xlslib_core@@@std@@YAPAPAVcell_t@xlslib_core@@AAPAV12@@Z
	??1?$_Vector_val@PAVformat_t@xlslib_core@@V?$allocator@PAVformat_t@xlslib_core@@@std@@@std@@QAE@XZ
	??$addressof@QAVrange_t@xlslib_core@@@std@@YAPBQAVrange_t@xlslib_core@@ABQAV12@@Z
	?_Make_iter@?$vector@PAVformula_t@xlslib_core@@V?$allocator@PAVformula_t@xlslib_core@@@std@@@std@@QBE?AV?$_Vector_iterator@V?$_Vector_val@PAVformula_t@xlslib_core@@V?$allocator@PAVformula_t@xlslib_core@@@std@@@std@@@2@V?$_Vector_const_iterator@V?$_Vector_val@PAVformula_t@xlslib_core@@V?$allocator@PAVformula_t@xlslib_core@@@std@@@std@@@2@@Z
	?_Compat@?$_Vector_const_iterator@V?$_Vector_val@Urowblocksize_t@xlslib_core@@V?$allocator@Urowblocksize_t@xlslib_core@@@std@@@std@@@std@@QBEXABV12@@Z
	?_Parent@?$_Tree_val@V?$_Tset_traits@U?$pair@PAVxf_t@xlslib_core@@UborderedXft@2@@std@@VxfSorter@xlslib_core@@V?$allocator@U?$pair@PAVxf_t@xlslib_core@@UborderedXft@2@@std@@@2@$0A@@std@@@std@@SAAAPAU_Node@?$_Tree_nod@V?$_Tset_traits@U?$pair@PAVxf_t@xlslib_core@@UborderedXft@2@@std@@VxfSorter@xlslib_core@@V?$allocator@U?$pair@PAVxf_t@xlslib_core@@UborderedXft@2@@std@@@2@$0A@@std@@@2@PAU342@@Z
	??$_Destroy_range@V?$allocator@PAVxf_t@xlslib_core@@@std@@@std@@YAXPAPAVxf_t@xlslib_core@@0AAV?$allocator@PAVxf_t@xlslib_core@@@0@@Z
	??$_Destroy_range@V?$allocator@PAVCUnit@xlslib_core@@@std@@@std@@YAXPAPAVCUnit@xlslib_core@@0AAV?$allocator@PAVCUnit@xlslib_core@@@0@@Z
	??$move@AAV?$_Tree_const_iterator@V?$_Tree_val@V?$_Tset_traits@PAUcolinfo_t@xlslib_core@@Vcolinfosort@2@V?$allocator@PAUcolinfo_t@xlslib_core@@@std@@$0A@@std@@@std@@@std@@@std@@YA$$QAV?$_Tree_const_iterator@V?$_Tree_val@V?$_Tset_traits@PAUcolinfo_t@xlslib_core@@Vcolinfosort@2@V?$allocator@PAUcolinfo_t@xlslib_core@@@std@@$0A@@std@@@std@@@0@AAV10@@Z
	?destroy@?$allocator@PAUcolinfo_t@xlslib_core@@@std@@QAEXPAPAUcolinfo_t@xlslib_core@@@Z
	?_Destroy@?$vector@PAVworksheet@xlslib_core@@V?$allocator@PAVworksheet@xlslib_core@@@std@@@std@@IAEXPAPAVworksheet@xlslib_core@@0@Z
	?all@?$_Locbase@H@std@@2HB
	?_Compat@?$_String_const_iterator@_WU?$char_traits@_W@std@@V?$allocator@_W@2@@std@@QBEXABV12@@Z
	??$forward@AAV?$_Tree_const_iterator@V?$_Tree_val@V?$_Tset_traits@PAVrowheight_t@xlslib_core@@Vrowheightsort@2@V?$allocator@PAVrowheight_t@xlslib_core@@@std@@$0A@@std@@@std@@@std@@@std@@YAAAV?$_Tree_const_iterator@V?$_Tree_val@V?$_Tset_traits@PAVrowheight_t@xlslib_core@@Vrowheightsort@2@V?$allocator@PAVrowheight_t@xlslib_core@@@std@@$0A@@std@@@std@@@0@AAV10@@Z
	??0?$allocator@D@std@@QAE@ABV01@@Z
	??0?$allocator@G@std@@QAE@XZ
	??$_Cons_val@V?$allocator@PAUHyperLink@xlslib_core@@@std@@PAUHyperLink@xlslib_core@@ABQAU34@@std@@YAXAAV?$allocator@PAUHyperLink@xlslib_core@@@0@PAPAUHyperLink@xlslib_core@@ABQAU23@@Z
	??$forward@U?$pair@PAVxf_t@xlslib_core@@UborderedXft@2@@std@@@std@@YA$$QAU?$pair@PAVxf_t@xlslib_core@@UborderedXft@2@@0@AAU10@@Z
	?_Xlen@?$vector@PAVxf_t@xlslib_core@@V?$allocator@PAVxf_t@xlslib_core@@@std@@@std@@IBEXXZ
	??0?$allocator@_W@std@@QAE@ABV01@@Z
	??0?$allocator@PAVworksheet@xlslib_core@@@std@@QAE@XZ
	??1?$_Vector_val@PAVrange_t@xlslib_core@@V?$allocator@PAVrange_t@xlslib_core@@@std@@@std@@QAE@XZ
	??$addressof@QAVxf_t@xlslib_core@@@std@@YAPBQAVxf_t@xlslib_core@@ABQAV12@@Z
	?_Destroy@?$vector@PAVCUnit@xlslib_core@@V?$allocator@PAVCUnit@xlslib_core@@@std@@@std@@IAEXPAPAVCUnit@xlslib_core@@0@Z
	??0?$allocator@PAVboundsheet_t@xlslib_core@@@std@@QAE@XZ
	??0?$allocator@PAVHPSFitem@xlslib_core@@@std@@QAE@ABV01@@Z
	??$_Destroy@U_Node@?$_List_nod@PAV?$basic_string@DU?$char_traits@D@std@@V?$allocator@D@2@@std@@V?$allocator@PAV?$basic_string@DU?$char_traits@D@std@@V?$allocator@D@2@@std@@@2@@std@@@std@@YAXPAU_Node@?$_List_nod@PAV?$basic_string@DU?$char_traits@D@std@@V?$allocator@D@2@@std@@V?$allocator@PAV?$basic_string@DU?$char_traits@D@std@@V?$allocator@D@2@@std@@@2@@0@@Z
	??$_Destroy_range@V?$allocator@N@std@@@std@@YAXPAN0AAV?$allocator@N@0@U_Scalar_ptr_iterator_tag@0@@Z
	??0?$allocator@PAV?$basic_string@DU?$char_traits@D@std@@V?$allocator@D@2@@std@@@std@@QAE@XZ
	??$_Move@AAVCUnitStore@xlslib_core@@@std@@YA$$QAVCUnitStore@xlslib_core@@AAV12@@Z
	??$_Val_type@PAPAVboundsheet_t@xlslib_core@@@std@@YAPAPAVboundsheet_t@xlslib_core@@PAPAV12@@Z
	??1?$_Vector_val@VCUnitStore@xlslib_core@@V?$allocator@VCUnitStore@xlslib_core@@@std@@@std@@QAE@XZ
	?_Destroy@?$vector@PAVxf_t@xlslib_core@@V?$allocator@PAVxf_t@xlslib_core@@@std@@@std@@IAEXPAPAVxf_t@xlslib_core@@0@Z
	??$_Destroy_range@V?$allocator@PAVfont_t@xlslib_core@@@std@@@std@@YAXPAPAVfont_t@xlslib_core@@0AAV?$allocator@PAVfont_t@xlslib_core@@@0@U_Scalar_ptr_iterator_tag@0@@Z
	?_Compat@?$_Vector_const_iterator@V?$_Vector_val@VCUnitStore@xlslib_core@@V?$allocator@VCUnitStore@xlslib_core@@@std@@@std@@@std@@QBEXABV12@@Z
	??2@YAPAXIPAX@Z
	?get_allocator@?$basic_string@_WU?$char_traits@_W@std@@V?$allocator@_W@2@@std@@QBE?AV?$allocator@_W@2@XZ
	??$forward@ABN@std@@YAABNABN@Z
	??$_Dest_val@V?$allocator@PAVxf_t@xlslib_core@@@std@@PAVxf_t@xlslib_core@@@std@@YAXAAV?$allocator@PAVxf_t@xlslib_core@@@0@PAPAVxf_t@xlslib_core@@@Z
	?_Orphan_range@?$vector@PAVrange@xlslib_core@@V?$allocator@PAVrange@xlslib_core@@@std@@@std@@IBEXPAPAVrange@xlslib_core@@0@Z
	??$?0U?$pair@PAVxf_t@xlslib_core@@UborderedXft@2@@std@@@?$allocator@U_Node@?$_Tree_nod@V?$_Tset_traits@U?$pair@PAVxf_t@xlslib_core@@UborderedXft@2@@std@@VxfSorter@xlslib_core@@V?$allocator@U?$pair@PAVxf_t@xlslib_core@@UborderedXft@2@@std@@@2@$0A@@std@@@std@@@std@@QAE@ABV?$allocator@U?$pair@PAVxf_t@xlslib_core@@UborderedXft@2@@std@@@1@@Z
	??$forward@ABQAVformat_t@xlslib_core@@@std@@YAABQAVformat_t@xlslib_core@@ABQAV12@@Z
	?_Compat@?$_String_const_iterator@GU?$char_traits@G@std@@V?$allocator@G@2@@std@@QBEXABV12@@Z
	??$forward@AAV?$basic_string@DU?$char_traits@D@std@@V?$allocator@D@2@@std@@@std@@YAAAV?$basic_string@DU?$char_traits@D@std@@V?$allocator@D@2@@0@AAV10@@Z
	??$?0PAVrowheight_t@xlslib_core@@@?$allocator@U_Node@?$_Tree_nod@V?$_Tset_traits@PAVrowheight_t@xlslib_core@@Vrowheightsort@2@V?$allocator@PAVrowheight_t@xlslib_core@@@std@@$0A@@std@@@std@@@std@@QAE@ABV?$allocator@PAVrowheight_t@xlslib_core@@@1@@Z
	??E?$_Vector_iterator@V?$_Vector_val@PAVformat_t@xlslib_core@@V?$allocator@PAVformat_t@xlslib_core@@@std@@@std@@@std@@QAEAAV01@XZ
	??0?$allocator@Urowblocksize_t@xlslib_core@@@std@@QAE@XZ
	??$_Destroy_range@V?$allocator@PAVboundsheet_t@xlslib_core@@@std@@@std@@YAXPAPAVboundsheet_t@xlslib_core@@0AAV?$allocator@PAVboundsheet_t@xlslib_core@@@0@@Z
	??$forward@V?$allocator@D@std@@@std@@YA$$QAV?$allocator@D@0@AAV10@@Z
	?_Compat@?$_Vector_const_iterator@V?$_Vector_val@PAVCOleProp@xlslib_core@@V?$allocator@PAVCOleProp@xlslib_core@@@std@@@std@@@std@@QBEXABV12@@Z
	??$_Destroy_range@V?$allocator@PAVformat_t@xlslib_core@@@std@@@std@@YAXPAPAVformat_t@xlslib_core@@0AAV?$allocator@PAVformat_t@xlslib_core@@@0@@Z
	?_Destroy@?$vector@PAVrange_t@xlslib_core@@V?$allocator@PAVrange_t@xlslib_core@@@std@@@std@@IAEXPAPAVrange_t@xlslib_core@@0@Z
	??$_Destroy_range@V?$allocator@PAVrange@xlslib_core@@@std@@@std@@YAXPAPAVrange@xlslib_core@@0AAV?$allocator@PAVrange@xlslib_core@@@0@@Z
	??0?$allocator@V?$basic_string@DU?$char_traits@D@std@@V?$allocator@D@2@@std@@@std@@QAE@XZ
	??Y?$_String_iterator@DU?$char_traits@D@std@@V?$allocator@D@2@@std@@QAEAAV01@H@Z
	??$forward@AAPAUDataValidation@xlslib_core@@@std@@YAAAPAUDataValidation@xlslib_core@@AAPAU12@@Z
	??$_Ptr_cat@PAVCUnit@xlslib_core@@PAV12@@std@@YA?AU_Scalar_ptr_iterator_tag@0@PAPAVCUnit@xlslib_core@@0@Z
	??$forward@ABQAVCOleProp@xlslib_core@@@std@@YAABQAVCOleProp@xlslib_core@@ABQAV12@@Z
	??$addressof@I@std@@YAPAIAAI@Z
	??$forward@ABQAVformula_t@xlslib_core@@@std@@YAABQAVformula_t@xlslib_core@@ABQAV12@@Z
	?_Compat@?$_Vector_const_iterator@V?$_Vector_val@PAVworksheet@xlslib_core@@V?$allocator@PAVworksheet@xlslib_core@@@std@@@std@@@std@@QBEXABV12@@Z
	??0?$_Tree_unchecked_const_iterator@V?$_Tree_val@V?$_Tset_traits@PAVcell_t@xlslib_core@@Vinsertsort@2@V?$allocator@PAVcell_t@xlslib_core@@@std@@$0A@@std@@@std@@U_Iterator_base0@2@@std@@QAE@PAU_Node@?$_Tree_nod@V?$_Tset_traits@PAVcell_t@xlslib_core@@Vinsertsort@2@V?$allocator@PAVcell_t@xlslib_core@@@std@@$0A@@std@@@1@PBV?$_Tree_val@V?$_Tset_traits@PAVcell_t@xlslib_core@@Vinsertsort@2@V?$allocator@PAVcell_t@xlslib_core@@@std@@$0A@@std@@@1@@Z
	?destroy@?$allocator@PAVcell_t@xlslib_core@@@std@@QAEXPAPAVcell_t@xlslib_core@@@Z
	??$?0PAV?$basic_string@DU?$char_traits@D@std@@V?$allocator@D@2@@std@@@?$allocator@U_Node@?$_List_nod@PAV?$basic_string@DU?$char_traits@D@std@@V?$allocator@D@2@@std@@V?$allocator@PAV?$basic_string@DU?$char_traits@D@std@@V?$allocator@D@2@@std@@@2@@std@@@std@@QAE@ABV?$allocator@PAV?$basic_string@DU?$char_traits@D@std@@V?$allocator@D@2@@std@@@1@@Z
	?_Destroy@?$vector@PAUDataValidation@xlslib_core@@V?$allocator@PAUDataValidation@xlslib_core@@@std@@@std@@IAEXPAPAUDataValidation@xlslib_core@@0@Z
	??$forward@V?$basic_string@DU?$char_traits@D@std@@V?$allocator@D@2@@std@@@std@@YA$$QAV?$basic_string@DU?$char_traits@D@std@@V?$allocator@D@2@@0@AAV10@@Z
	??$forward@AAU?$pair@PAVxf_t@xlslib_core@@UborderedXft@2@@std@@@std@@YAAAU?$pair@PAVxf_t@xlslib_core@@UborderedXft@2@@0@AAU10@@Z
	??0note_t@xlslib_core@@AAE@AAVCGlobalRecords@1@IIABV?$basic_string@GU?$char_traits@G@std@@V?$allocator@G@2@@std@@1PAVxf_t@1@@Z
	?_Orphan_range@?$vector@IV?$allocator@I@std@@@std@@IBEXPAI0@Z
	?_Left@?$_Tree_val@V?$_Tset_traits@PAVcell_t@xlslib_core@@Vinsertsort@2@V?$allocator@PAVcell_t@xlslib_core@@@std@@$0A@@std@@@std@@SAAAPAU_Node@?$_Tree_nod@V?$_Tset_traits@PAVcell_t@xlslib_core@@Vinsertsort@2@V?$allocator@PAVcell_t@xlslib_core@@@std@@$0A@@std@@@2@PAU342@@Z
	??1?$_Vector_val@NV?$allocator@N@std@@@std@@QAE@XZ
	?_Nextnode@?$_List_val@PAV?$basic_string@DU?$char_traits@D@std@@V?$allocator@D@2@@std@@V?$allocator@PAV?$basic_string@DU?$char_traits@D@std@@V?$allocator@D@2@@std@@@2@@std@@SAAAPAU_Node@?$_List_nod@PAV?$basic_string@DU?$char_traits@D@std@@V?$allocator@D@2@@std@@V?$allocator@PAV?$basic_string@DU?$char_traits@D@std@@V?$allocator@D@2@@std@@@2@@2@PAU342@@Z
	?_Destroy@?$vector@Urowblocksize_t@xlslib_core@@V?$allocator@Urowblocksize_t@xlslib_core@@@std@@@std@@IAEXPAUrowblocksize_t@xlslib_core@@0@Z
	?destroy@?$allocator@PAVrowheight_t@xlslib_core@@@std@@QAEXPAPAVrowheight_t@xlslib_core@@@Z
	??1?$_Vector_val@Urowblocksize_t@xlslib_core@@V?$allocator@Urowblocksize_t@xlslib_core@@@std@@@std@@QAE@XZ
	?_Reset_back@?$basic_filebuf@DU?$char_traits@D@std@@@std@@AAEXXZ
	??$_Destroy_range@V?$allocator@PAUHyperLink@xlslib_core@@@std@@@std@@YAXPAPAUHyperLink@xlslib_core@@0AAV?$allocator@PAUHyperLink@xlslib_core@@@0@U_Scalar_ptr_iterator_tag@0@@Z
	?_Kfn@?$_Tset_traits@PAVrowheight_t@xlslib_core@@Vrowheightsort@2@V?$allocator@PAVrowheight_t@xlslib_core@@@std@@$0A@@std@@SAABQAVrowheight_t@xlslib_core@@ABQAV34@@Z
	?_Compat@?$_Vector_const_iterator@V?$_Vector_val@PAVfont_t@xlslib_core@@V?$allocator@PAVfont_t@xlslib_core@@@std@@@std@@@std@@QBEXABV12@@Z
	?_Kfn@?$_Tset_traits@U?$pair@PAVxf_t@xlslib_core@@UborderedXft@2@@std@@VxfSorter@xlslib_core@@V?$allocator@U?$pair@PAVxf_t@xlslib_core@@UborderedXft@2@@std@@@2@$0A@@std@@SAABU?$pair@PAVxf_t@xlslib_core@@UborderedXft@2@@2@ABU32@@Z
	??0?$allocator@PAUHyperLink@xlslib_core@@@std@@QAE@ABV01@@Z
	?_Rank@?$_Arithmetic_traits@E@std@@2HB
	?_Compat@?$_Vector_const_iterator@V?$_Vector_val@PAUHyperLink@xlslib_core@@V?$allocator@PAUHyperLink@xlslib_core@@@std@@@std@@@std@@QBEXABV12@@Z
	??$forward@AAPAVxf_t@xlslib_core@@@std@@YAAAPAVxf_t@xlslib_core@@AAPAV12@@Z
	??1?$_Vector_val@PAUstyle_t@xlslib_core@@V?$allocator@PAUstyle_t@xlslib_core@@@std@@@std@@QAE@XZ
	??$forward@VCUnitStore@xlslib_core@@@std@@YA$$QAVCUnitStore@xlslib_core@@AAV12@@Z
	??$_Iter_cat@V?$_Vector_iterator@V?$_Vector_val@VCUnitStore@xlslib_core@@V?$allocator@VCUnitStore@xlslib_core@@@std@@@std@@@std@@@std@@YA?AUrandom_access_iterator_tag@0@ABV?$_Vector_iterator@V?$_Vector_val@VCUnitStore@xlslib_core@@V?$allocator@VCUnitStore@xlslib_core@@@std@@@std@@@0@@Z
	?GetParent@xf_t@xlslib_core@@QBEPBV12@XZ
	??0?$allocator@PAUcolinfo_t@xlslib_core@@@std@@QAE@XZ
	??$forward@ABQAVrange@xlslib_core@@@std@@YAABQAVrange@xlslib_core@@ABQAV12@@Z
	??1?$_Vector_val@V?$basic_string@DU?$char_traits@D@std@@V?$allocator@D@2@@std@@V?$allocator@V?$basic_string@DU?$char_traits@D@std@@V?$allocator@D@2@@std@@@2@@std@@QAE@XZ
	?SetArrayAt@CUnit@xlslib_core@@QAEDPBEII@Z
	??$forward@AAV?$_Tree_const_iterator@V?$_Tree_val@V?$_Tset_traits@U?$pair@PAVxf_t@xlslib_core@@UborderedXft@2@@std@@VxfSorter@xlslib_core@@V?$allocator@U?$pair@PAVxf_t@xlslib_core@@UborderedXft@2@@std@@@2@$0A@@std@@@std@@@std@@@std@@YAAAV?$_Tree_const_iterator@V?$_Tree_val@V?$_Tset_traits@U?$pair@PAVxf_t@xlslib_core@@UborderedXft@2@@std@@VxfSorter@xlslib_core@@V?$allocator@U?$pair@PAVxf_t@xlslib_core@@UborderedXft@2@@std@@@2@$0A@@std@@@std@@@0@AAV10@@Z
	??$addressof@PAUcolinfo_t@xlslib_core@@@std@@YAPAPAUcolinfo_t@xlslib_core@@AAPAU12@@Z
	?_Compat@?$_Vector_const_iterator@V?$_Vector_val@PAVxf_t@xlslib_core@@V?$allocator@PAVxf_t@xlslib_core@@@std@@@std@@@std@@QBEXABV12@@Z
	??$forward@AAPAVrange@xlslib_core@@@std@@YAAAPAVrange@xlslib_core@@AAPAV12@@Z
	??1?$set@PAVHPSFitem@xlslib_core@@Vinsertsort2@2@V?$allocator@PAVHPSFitem@xlslib_core@@@std@@@std@@QAE@XZ
	?_Compat@?$_Vector_const_iterator@V?$_Vector_val@PAUstyle_t@xlslib_core@@V?$allocator@PAUstyle_t@xlslib_core@@@std@@@std@@@std@@QBEXABV12@@Z
	??$_Destroy_range@V?$allocator@PAUHyperLink@xlslib_core@@@std@@@std@@YAXPAPAUHyperLink@xlslib_core@@0AAV?$allocator@PAUHyperLink@xlslib_core@@@0@@Z
	??$_Uninitialized_move@PAPAVCUnit@xlslib_core@@PAPAV12@V?$allocator@PAVCUnit@xlslib_core@@@std@@@std@@YAPAPAVCUnit@xlslib_core@@PAPAV12@00AAV?$allocator@PAVCUnit@xlslib_core@@@0@@Z
	?_Orphan_range@?$vector@V?$basic_string@_WU?$char_traits@_W@std@@V?$allocator@_W@2@@std@@V?$allocator@V?$basic_string@_WU?$char_traits@_W@std@@V?$allocator@_W@2@@std@@@2@@std@@IBEXPAV?$basic_string@_WU?$char_traits@_W@std@@V?$allocator@_W@2@@2@0@Z
	?_Kfn@?$_Tset_traits@PAUcolinfo_t@xlslib_core@@Vcolinfosort@2@V?$allocator@PAUcolinfo_t@xlslib_core@@@std@@$0A@@std@@SAABQAUcolinfo_t@xlslib_core@@ABQAU34@@Z
	??$forward@AAPAPAVCOleProp@xlslib_core@@@std@@YAAAPAPAVCOleProp@xlslib_core@@AAPAPAV12@@Z
	?_Destroy@?$vector@PAUstyle_t@xlslib_core@@V?$allocator@PAUstyle_t@xlslib_core@@@std@@@std@@IAEXPAPAUstyle_t@xlslib_core@@0@Z
	??$_Dest_val@V?$allocator@PAVHPSFitem@xlslib_core@@@std@@PAVHPSFitem@xlslib_core@@@std@@YAXAAV?$allocator@PAVHPSFitem@xlslib_core@@@0@PAPAVHPSFitem@xlslib_core@@@Z
	??0workbook@xlslib_core@@QAE@XZ
	?_Orphan_range@?$vector@VCUnitStore@xlslib_core@@V?$allocator@VCUnitStore@xlslib_core@@@std@@@std@@IBEXPAVCUnitStore@xlslib_core@@0@Z
	??0?$allocator@V?$basic_string@DU?$char_traits@D@std@@V?$allocator@D@2@@std@@@std@@QAE@ABV01@@Z
	??$addressof@QAUHyperLink@xlslib_core@@@std@@YAPBQAUHyperLink@xlslib_core@@ABQAU12@@Z
	??$addressof@QAVCUnit@xlslib_core@@@std@@YAPBQAVCUnit@xlslib_core@@ABQAV12@@Z
	?AddRowOffset@CDBCell@xlslib_core@@QAEXI@Z
	??$addressof@QAVCOleProp@xlslib_core@@@std@@YAPBQAVCOleProp@xlslib_core@@ABQAV12@@Z
	??1CExtFormat@xlslib_core@@EAE@XZ
	??4?$basic_string@DU?$char_traits@D@std@@V?$allocator@D@2@@std@@QAEAAV01@PBD@Z
	?SCRIPT_OPTION_TABLE@font_t@xlslib_core@@0QBGB
	??0?$allocator@PAVformula_t@xlslib_core@@@std@@QAE@ABV01@@Z
	??0?$pair@V?$_Tree_const_iterator@V?$_Tree_val@V?$_Tset_traits@U?$pair@PAVxf_t@xlslib_core@@UborderedXft@2@@std@@VxfSorter@xlslib_core@@V?$allocator@U?$pair@PAVxf_t@xlslib_core@@UborderedXft@2@@std@@@2@$0A@@std@@@std@@@std@@_N@std@@QAE@XZ
	??0?$allocator@PAVcell_t@xlslib_core@@@std@@QAE@ABV01@@Z
	??0?$allocator@PAVrange@xlslib_core@@@std@@QAE@XZ
	?_Orphan_range@?$vector@PAVworksheet@xlslib_core@@V?$allocator@PAVworksheet@xlslib_core@@@std@@@std@@IBEXPAPAVworksheet@xlslib_core@@0@Z
	??1?$_String_val@DV?$allocator@D@std@@@std@@QAE@XZ
	??$forward@ABQAVfont_t@xlslib_core@@@std@@YAABQAVfont_t@xlslib_core@@ABQAV12@@Z
	??0?$allocator@Urowblocksize_t@xlslib_core@@@std@@QAE@ABV01@@Z
	??$_Destroy_range@V?$allocator@PAUstyle_t@xlslib_core@@@std@@@std@@YAXPAPAUstyle_t@xlslib_core@@0AAV?$allocator@PAUstyle_t@xlslib_core@@@0@@Z
	??0?$allocator@N@std@@QAE@XZ
	??$_Destroy_range@V?$allocator@I@std@@@std@@YAXPAI0AAV?$allocator@I@0@U_Scalar_ptr_iterator_tag@0@@Z
	??$_Destroy_range@V?$allocator@PAVrange_t@xlslib_core@@@std@@@std@@YAXPAPAVrange_t@xlslib_core@@0AAV?$allocator@PAVrange_t@xlslib_core@@@0@@Z
	?_Orphan_range@?$vector@V?$basic_string@DU?$char_traits@D@std@@V?$allocator@D@2@@std@@V?$allocator@V?$basic_string@DU?$char_traits@D@std@@V?$allocator@D@2@@std@@@2@@std@@IBEXPAV?$basic_string@DU?$char_traits@D@std@@V?$allocator@D@2@@2@0@Z
	??$_Destroy@PAUcolinfo_t@xlslib_core@@@std@@YAXPAPAUcolinfo_t@xlslib_core@@@Z
	??$_Dest_val@V?$allocator@U_Node@?$_List_nod@PAV?$basic_string@DU?$char_traits@D@std@@V?$allocator@D@2@@std@@V?$allocator@PAV?$basic_string@DU?$char_traits@D@std@@V?$allocator@D@2@@std@@@2@@std@@@std@@U_Node@?$_List_nod@PAV?$basic_string@DU?$char_traits@D@std@@V?$allocator@D@2@@std@@V?$allocator@PAV?$basic_string@DU?$char_traits@D@std@@V?$allocator@D@2@@std@@@2@@2@@std@@YAXAAV?$allocator@U_Node@?$_List_nod@PAV?$basic_string@DU?$char_traits@D@std@@V?$allocator@D@2@@std@@V?$allocator@PAV?$basic_string@DU?$char_traits@D@std@@V?$allocator@D@2@@std@@@2@@std@@@0@PAU_Node@?$_List_nod@PAV?$basic_string@DU?$char_traits@D@std@@V?$allocator@D@2@@std@@V?$allocator@PAV?$basic_string@DU?$char_traits@D@std@@V?$allocator@D@2@@std@@@2@@0@@Z
	??$_Destroy_range@V?$allocator@PAVformula_t@xlslib_core@@@std@@@std@@YAXPAPAVformula_t@xlslib_core@@0AAV?$allocator@PAVformula_t@xlslib_core@@@0@@Z
	??$addressof@U?$pair@PAVxf_t@xlslib_core@@UborderedXft@2@@std@@@std@@YAPAU?$pair@PAVxf_t@xlslib_core@@UborderedXft@2@@0@AAU10@@Z
	??$addressof@QAVformula_t@xlslib_core@@@std@@YAPBQAVformula_t@xlslib_core@@ABQAV12@@Z
	?GetPropID@HPSFitem@xlslib_core@@QBEGXZ
	??$forward@AAPAVformat_t@xlslib_core@@@std@@YAAAPAVformat_t@xlslib_core@@AAPAV12@@Z
	??1?$vector@NV?$allocator@N@std@@@std@@QAE@XZ
	??$forward@AAV?$_Tree_const_iterator@V?$_Tree_val@V?$_Tset_traits@PAVHPSFitem@xlslib_core@@Vinsertsort2@2@V?$allocator@PAVHPSFitem@xlslib_core@@@std@@$0A@@std@@@std@@@std@@@std@@YAAAV?$_Tree_const_iterator@V?$_Tree_val@V?$_Tset_traits@PAVHPSFitem@xlslib_core@@Vinsertsort2@2@V?$allocator@PAVHPSFitem@xlslib_core@@@std@@$0A@@std@@@std@@@0@AAV10@@Z
	?erase@?$_Tree@V?$_Tset_traits@PAUcolinfo_t@xlslib_core@@Vcolinfosort@2@V?$allocator@PAUcolinfo_t@xlslib_core@@@std@@$0A@@std@@@std@@QAE?AV?$_Tree_const_iterator@V?$_Tree_val@V?$_Tset_traits@PAUcolinfo_t@xlslib_core@@Vcolinfosort@2@V?$allocator@PAUcolinfo_t@xlslib_core@@@std@@$0A@@std@@@std@@@2@V32@@Z
	??1?$_Tree_val@V?$_Tset_traits@PAVcell_t@xlslib_core@@Vinsertsort@2@V?$allocator@PAVcell_t@xlslib_core@@@std@@$0A@@std@@@std@@QAE@XZ
	?_Compat@?$_Vector_const_iterator@V?$_Vector_val@IV?$allocator@I@std@@@std@@@std@@QBEXABV12@@Z
	??$_Destroy@PAVxf_t@xlslib_core@@@std@@YAXPAPAVxf_t@xlslib_core@@@Z
	??1?$_Vector_val@IV?$allocator@I@std@@@std@@QAE@XZ
	??$_Iter_cat@V?$_Tree_const_iterator@V?$_Tree_val@V?$_Tset_traits@PAVHPSFitem@xlslib_core@@Vinsertsort2@2@V?$allocator@PAVHPSFitem@xlslib_core@@@std@@$0A@@std@@@std@@@std@@@std@@YA?AUbidirectional_iterator_tag@0@ABV?$_Tree_const_iterator@V?$_Tree_val@V?$_Tset_traits@PAVHPSFitem@xlslib_core@@Vinsertsort2@2@V?$allocator@PAVHPSFitem@xlslib_core@@@std@@$0A@@std@@@std@@@0@@Z
	?_Orphan_range@?$vector@PAUHyperLink@xlslib_core@@V?$allocator@PAUHyperLink@xlslib_core@@@std@@@std@@IBEXPAPAUHyperLink@xlslib_core@@0@Z
	??0?$allocator@_W@std@@QAE@XZ
	??$addressof@$$CBN@std@@YAPBNABN@Z
	??$_Destroy_range@V?$allocator@Urowblocksize_t@xlslib_core@@@std@@@std@@YAXPAUrowblocksize_t@xlslib_core@@0AAV?$allocator@Urowblocksize_t@xlslib_core@@@0@U_Nonscalar_ptr_iterator_tag@0@@Z
	??$addressof@PAVrowheight_t@xlslib_core@@@std@@YAPAPAVrowheight_t@xlslib_core@@AAPAV12@@Z
	?validate@worksheet@xlslib_core@@QAEXPBVrange_t@2@IPBVformula_t@2@1ABV?$basic_string@_WU?$char_traits@_W@std@@V?$allocator@_W@2@@std@@222@Z
	??1?$_Vector_val@PAVboundsheet_t@xlslib_core@@V?$allocator@PAVboundsheet_t@xlslib_core@@@std@@@std@@QAE@XZ
	?_Destroy@?$vector@PAVformat_t@xlslib_core@@V?$allocator@PAVformat_t@xlslib_core@@@std@@@std@@IAEXPAPAVformat_t@xlslib_core@@0@Z
	??$addressof@$$CBI@std@@YAPBIABI@Z
	?_Orphan_range@?$vector@PAVxf_t@xlslib_core@@V?$allocator@PAVxf_t@xlslib_core@@@std@@@std@@IBEXPAPAVxf_t@xlslib_core@@0@Z
	?lower_bound@?$_Tree@V?$_Tset_traits@PAUcolinfo_t@xlslib_core@@Vcolinfosort@2@V?$allocator@PAUcolinfo_t@xlslib_core@@@std@@$0A@@std@@@std@@QAE?AV?$_Tree_const_iterator@V?$_Tree_val@V?$_Tset_traits@PAUcolinfo_t@xlslib_core@@Vcolinfosort@2@V?$allocator@PAUcolinfo_t@xlslib_core@@@std@@$0A@@std@@@std@@@2@ABQAUcolinfo_t@xlslib_core@@@Z
	?_Orphan_range@?$vector@Urowblocksize_t@xlslib_core@@V?$allocator@Urowblocksize_t@xlslib_core@@@std@@@std@@IBEXPAUrowblocksize_t@xlslib_core@@0@Z
	??$forward@V?$allocator@_W@std@@@std@@YA$$QAV?$allocator@_W@0@AAV10@@Z
	??$_Destroy_range@V?$allocator@PAVrange@xlslib_core@@@std@@@std@@YAXPAPAVrange@xlslib_core@@0AAV?$allocator@PAVrange@xlslib_core@@@0@U_Scalar_ptr_iterator_tag@0@@Z
	??$addressof@PBVlabel_t@xlslib_core@@@std@@YAPAPBVlabel_t@xlslib_core@@AAPBV12@@Z
	??$_Umove@PAI@?$vector@IV?$allocator@I@std@@@std@@IAEPAIPAI00@Z
	??$forward@ABQAV?$basic_string@DU?$char_traits@D@std@@V?$allocator@D@2@@std@@@std@@YAABQAV?$basic_string@DU?$char_traits@D@std@@V?$allocator@D@2@@0@ABQAV10@@Z
	??$addressof@$$CBUrowblocksize_t@xlslib_core@@@std@@YAPBUrowblocksize_t@xlslib_core@@ABU12@@Z
	?_Rank@?$_Arithmetic_traits@_N@std@@2HB
	??1?$_Vector_val@PAVCOleProp@xlslib_core@@V?$allocator@PAVCOleProp@xlslib_core@@@std@@@std@@QAE@XZ
	?_Isnil@?$_Tree_val@V?$_Tset_traits@U?$pair@PAVxf_t@xlslib_core@@UborderedXft@2@@std@@VxfSorter@xlslib_core@@V?$allocator@U?$pair@PAVxf_t@xlslib_core@@UborderedXft@2@@std@@@2@$0A@@std@@@std@@SAAADPAU_Node@?$_Tree_nod@V?$_Tset_traits@U?$pair@PAVxf_t@xlslib_core@@UborderedXft@2@@std@@VxfSorter@xlslib_core@@V?$allocator@U?$pair@PAVxf_t@xlslib_core@@UborderedXft@2@@std@@@2@$0A@@std@@@2@@Z
	??0?$allocator@PAVCOleProp@xlslib_core@@@std@@QAE@ABV01@@Z
	??0label_t@xlslib_core@@AAE@AAVCGlobalRecords@1@IIABV?$basic_string@DU?$char_traits@D@std@@V?$allocator@D@2@@std@@PAVxf_t@1@@Z
	??$move@AAUrowblocksize_t@xlslib_core@@@std@@YA$$QAUrowblocksize_t@xlslib_core@@AAU12@@Z
	??$forward@AAPAVworksheet@xlslib_core@@@std@@YAAAPAVworksheet@xlslib_core@@AAPAV12@@Z
	??0?$_Vector_val@PAVworksheet@xlslib_core@@V?$allocator@PAVworksheet@xlslib_core@@@std@@@std@@QAE@V?$allocator@PAVworksheet@xlslib_core@@@1@@Z
	?_Compat@?$_Vector_const_iterator@V?$_Vector_val@PAVformula_t@xlslib_core@@V?$allocator@PAVformula_t@xlslib_core@@@std@@@std@@@std@@QBEXABV12@@Z
	??$forward@ABUrowblocksize_t@xlslib_core@@@std@@YAABUrowblocksize_t@xlslib_core@@ABU12@@Z
	??$_Destroy_range@V?$allocator@PBVlabel_t@xlslib_core@@@std@@@std@@YAXPAPBVlabel_t@xlslib_core@@0AAV?$allocator@PBVlabel_t@xlslib_core@@@0@U_Scalar_ptr_iterator_tag@0@@Z
	??$forward@ABQAVworksheet@xlslib_core@@@std@@YAABQAVworksheet@xlslib_core@@ABQAV12@@Z
	??$_Dest_val@V?$allocator@U?$pair@PAVxf_t@xlslib_core@@UborderedXft@2@@std@@@std@@U?$pair@PAVxf_t@xlslib_core@@UborderedXft@2@@2@@std@@YAXAAV?$allocator@U?$pair@PAVxf_t@xlslib_core@@UborderedXft@2@@std@@@0@PAU?$pair@PAVxf_t@xlslib_core@@UborderedXft@2@@0@@Z
	??$move@AAPAVxf_t@xlslib_core@@@std@@YA$$QAPAVxf_t@xlslib_core@@AAPAV12@@Z
	??$_Destroy_range@V?$allocator@PAVformula_t@xlslib_core@@@std@@@std@@YAXPAPAVformula_t@xlslib_core@@0AAV?$allocator@PAVformula_t@xlslib_core@@@0@U_Scalar_ptr_iterator_tag@0@@Z
	??0?$_String_val@_WV?$allocator@_W@std@@@std@@QAE@V?$allocator@_W@1@@Z
	??0?$allocator@PAVCUnit@xlslib_core@@@std@@QAE@XZ
	??$_Destroy_range@V?$allocator@PAVformat_t@xlslib_core@@@std@@@std@@YAXPAPAVformat_t@xlslib_core@@0AAV?$allocator@PAVformat_t@xlslib_core@@@0@U_Scalar_ptr_iterator_tag@0@@Z
	?_Destroy@?$vector@IV?$allocator@I@std@@@std@@IAEXPAI0@Z
	??0?$_Tree_val@V?$_Tset_traits@PAVHPSFitem@xlslib_core@@Vinsertsort2@2@V?$allocator@PAVHPSFitem@xlslib_core@@@std@@$0A@@std@@@std@@QAE@ABVinsertsort2@xlslib_core@@V?$allocator@PAVHPSFitem@xlslib_core@@@1@@Z
	?_Destroy@?$vector@PAVCOleProp@xlslib_core@@V?$allocator@PAVCOleProp@xlslib_core@@@std@@@std@@IAEXPAPAVCOleProp@xlslib_core@@0@Z
	?_Destroy@?$vector@PAUHyperLink@xlslib_core@@V?$allocator@PAUHyperLink@xlslib_core@@@std@@@std@@IAEXPAPAUHyperLink@xlslib_core@@0@Z
	??0?$allocator@PAUHyperLink@xlslib_core@@@std@@QAE@XZ
	??$_Destroy_range@V?$allocator@N@std@@@std@@YAXPAN0AAV?$allocator@N@0@@Z
	?boolean@worksheet@xlslib_core@@QAEPAVcell_t@2@II_NPAVxf_t@2@@Z
	??$move@AAV?$_Tree_const_iterator@V?$_Tree_val@V?$_Tset_traits@U?$pair@PAVxf_t@xlslib_core@@UborderedXft@2@@std@@VxfSorter@xlslib_core@@V?$allocator@U?$pair@PAVxf_t@xlslib_core@@UborderedXft@2@@std@@@2@$0A@@std@@@std@@@std@@@std@@YA$$QAV?$_Tree_const_iterator@V?$_Tree_val@V?$_Tset_traits@U?$pair@PAVxf_t@xlslib_core@@UborderedXft@2@@std@@VxfSorter@xlslib_core@@V?$allocator@U?$pair@PAVxf_t@xlslib_core@@UborderedXft@2@@std@@@2@$0A@@std@@@std@@@0@AAV10@@Z
	??0boundsheet_t@xlslib_core@@QAE@AAVCGlobalRecords@1@@Z
	?_Left@?$_Tree_val@V?$_Tset_traits@U?$pair@PAVxf_t@xlslib_core@@UborderedXft@2@@std@@VxfSorter@xlslib_core@@V?$allocator@U?$pair@PAVxf_t@xlslib_core@@UborderedXft@2@@std@@@2@$0A@@std@@@std@@SAAAPAU_Node@?$_Tree_nod@V?$_Tset_traits@U?$pair@PAVxf_t@xlslib_core@@UborderedXft@2@@std@@VxfSorter@xlslib_core@@V?$allocator@U?$pair@PAVxf_t@xlslib_core@@UborderedXft@2@@std@@@2@$0A@@std@@@2@PAU342@@Z
	??0?$allocator@PBVlabel_t@xlslib_core@@@std@@QAE@ABV01@@Z
	??0?$allocator@PAVxf_t@xlslib_core@@@std@@QAE@XZ
	?_Kfn@?$_Tset_traits@PAVcell_t@xlslib_core@@Vinsertsort@2@V?$allocator@PAVcell_t@xlslib_core@@@std@@$0A@@std@@SAABQAVcell_t@xlslib_core@@ABQAV34@@Z
	?destroy@?$allocator@U?$pair@PAVxf_t@xlslib_core@@UborderedXft@2@@std@@@std@@QAEXPAU?$pair@PAVxf_t@xlslib_core@@UborderedXft@2@@2@@Z
	??0?$allocator@U?$pair@PAVxf_t@xlslib_core@@UborderedXft@2@@std@@@std@@QAE@ABV01@@Z
	??$_Destroy_range@V?$allocator@PAVCOleProp@xlslib_core@@@std@@@std@@YAXPAPAVCOleProp@xlslib_core@@0AAV?$allocator@PAVCOleProp@xlslib_core@@@0@U_Scalar_ptr_iterator_tag@0@@Z
	??F?$_Vector_iterator@V?$_Vector_val@PAVboundsheet_t@xlslib_core@@V?$allocator@PAVboundsheet_t@xlslib_core@@@std@@@std@@@std@@QAEAAV01@XZ
	??$forward@ABQAUDataValidation@xlslib_core@@@std@@YAABQAUDataValidation@xlslib_core@@ABQAU12@@Z
	??YCUnit@xlslib_core@@QAEAAV01@E@Z
	?_Orphan_range@?$vector@PAVCOleProp@xlslib_core@@V?$allocator@PAVCOleProp@xlslib_core@@@std@@@std@@IBEXPAPAVCOleProp@xlslib_core@@0@Z
	?destroy@?$allocator@PAVHPSFitem@xlslib_core@@@std@@QAEXPAPAVHPSFitem@xlslib_core@@@Z
	??$_Dest_val@V?$allocator@PAVcell_t@xlslib_core@@@std@@PAVcell_t@xlslib_core@@@std@@YAXAAV?$allocator@PAVcell_t@xlslib_core@@@0@PAPAVcell_t@xlslib_core@@@Z
	??$_Fgetc@D@std@@YA_NAADPAU_iobuf@@@Z
	??0?$allocator@PAV?$basic_string@DU?$char_traits@D@std@@V?$allocator@D@2@@std@@@std@@QAE@ABV01@@Z
	??$addressof@QAUstyle_t@xlslib_core@@@std@@YAPBQAUstyle_t@xlslib_core@@ABQAU12@@Z
	??$forward@ABI@std@@YAABIABI@Z
	??0?$allocator@PAUstyle_t@xlslib_core@@@std@@QAE@XZ
	??E?$_Vector_const_iterator@V?$_Vector_val@PAVCOleProp@xlslib_core@@V?$allocator@PAVCOleProp@xlslib_core@@@std@@@std@@@std@@QAEAAV01@XZ
	??E?$_Vector_const_iterator@V?$_Vector_val@PAVrange_t@xlslib_core@@V?$allocator@PAVrange_t@xlslib_core@@@std@@@std@@@std@@QAEAAV01@XZ
	??$_Destroy_range@V?$allocator@PAVCOleProp@xlslib_core@@@std@@@std@@YAXPAPAVCOleProp@xlslib_core@@0AAV?$allocator@PAVCOleProp@xlslib_core@@@0@@Z
	?deallocate@?$allocator@PAVboundsheet_t@xlslib_core@@@std@@QAEXPAPAVboundsheet_t@xlslib_core@@I@Z
	??0?$allocator@PAVCUnit@xlslib_core@@@std@@QAE@ABV01@@Z
	??9?$_Vector_const_iterator@V?$_Vector_val@PAVformula_t@xlslib_core@@V?$allocator@PAVformula_t@xlslib_core@@@std@@@std@@@std@@QBE_NABV01@@Z
	??$construct@AAPAVHPSFitem@xlslib_core@@@?$allocator@PAVHPSFitem@xlslib_core@@@std@@QAEXPAPAVHPSFitem@xlslib_core@@AAPAV23@@Z
	??0?$allocator@PAVrowheight_t@xlslib_core@@@std@@QAE@ABV01@@Z
	??1?$_Tree_val@V?$_Tset_traits@PAUcolinfo_t@xlslib_core@@Vcolinfosort@2@V?$allocator@PAUcolinfo_t@xlslib_core@@@std@@$0A@@std@@@std@@QAE@XZ
	??$forward@AAPAUcolinfo_t@xlslib_core@@@std@@YAAAPAUcolinfo_t@xlslib_core@@AAPAU12@@Z
	??$_Destroy_range@V?$allocator@PAVxf_t@xlslib_core@@@std@@@std@@YAXPAPAVxf_t@xlslib_core@@0AAV?$allocator@PAVxf_t@xlslib_core@@@0@U_Scalar_ptr_iterator_tag@0@@Z
	?_Tidy@?$vector@PAVCUnit@xlslib_core@@V?$allocator@PAVCUnit@xlslib_core@@@std@@@std@@IAEXXZ
	?destroy@?$allocator@Urowblocksize_t@xlslib_core@@@std@@QAEXPAUrowblocksize_t@xlslib_core@@@Z
	??$_Dest_val@V?$allocator@PAUcolinfo_t@xlslib_core@@@std@@PAUcolinfo_t@xlslib_core@@@std@@YAXAAV?$allocator@PAUcolinfo_t@xlslib_core@@@0@PAPAUcolinfo_t@xlslib_core@@@Z
	??$addressof@$$CBV?$basic_string@_WU?$char_traits@_W@std@@V?$allocator@_W@2@@std@@@std@@YAPBV?$basic_string@_WU?$char_traits@_W@std@@V?$allocator@_W@2@@0@ABV10@@Z
	?_Orphan_range@?$vector@PAVCUnit@xlslib_core@@V?$allocator@PAVCUnit@xlslib_core@@@std@@@std@@IBEXPAPAVCUnit@xlslib_core@@0@Z
	??0?$allocator@PAVrowheight_t@xlslib_core@@@std@@QAE@XZ
	??$_Destroy@Urowblocksize_t@xlslib_core@@@std@@YAXPAUrowblocksize_t@xlslib_core@@@Z
	?push_back@?$vector@PAVworksheet@xlslib_core@@V?$allocator@PAVworksheet@xlslib_core@@@std@@@std@@QAEXABQAVworksheet@xlslib_core@@@Z
	__TI3?AV?$basic_string@DU?$char_traits@D@std@@V?$allocator@D@2@@std@@
	??$forward@ABQAVrange_t@xlslib_core@@@std@@YAABQAVrange_t@xlslib_core@@ABQAV12@@Z
	??$_Destroy@PAVrowheight_t@xlslib_core@@@std@@YAXPAPAVrowheight_t@xlslib_core@@@Z
	?GetAllNodesList@COleFileSystem@xlslib_core@@QAEXAAV?$vector@PAVCOleProp@xlslib_core@@V?$allocator@PAVCOleProp@xlslib_core@@@std@@@std@@PAVCOleProp@2@@Z
	?binary@?$_Iosb@H@std@@2W4_Openmode@12@B
	?_Orphan_range@?$vector@PAVfont_t@xlslib_core@@V?$allocator@PAVfont_t@xlslib_core@@@std@@@std@@IBEXPAPAVfont_t@xlslib_core@@0@Z
	??0?$allocator@PAVformat_t@xlslib_core@@@std@@QAE@ABV01@@Z
	??$forward@Urowblocksize_t@xlslib_core@@@std@@YA$$QAUrowblocksize_t@xlslib_core@@AAU12@@Z
	??$forward@ABQAVCUnit@xlslib_core@@@std@@YAABQAVCUnit@xlslib_core@@ABQAV12@@Z
	?_Isnil@?$_Tree_val@V?$_Tset_traits@PAVHPSFitem@xlslib_core@@Vinsertsort2@2@V?$allocator@PAVHPSFitem@xlslib_core@@@std@@$0A@@std@@@std@@SAAADPAU_Node@?$_Tree_nod@V?$_Tset_traits@PAVHPSFitem@xlslib_core@@Vinsertsort2@2@V?$allocator@PAVHPSFitem@xlslib_core@@@std@@$0A@@std@@@2@@Z
	??$forward@AAPAVcell_t@xlslib_core@@@std@@YAAAPAVcell_t@xlslib_core@@AAPAV12@@Z
	??0?$allocator@PAUcolinfo_t@xlslib_core@@@std@@QAE@ABV01@@Z
	?SetOffset@HPSFitem@xlslib_core@@QAEXI@Z
	?_Compat@?$_String_const_iterator@DU?$char_traits@D@std@@V?$allocator@D@2@@std@@QBEXABV12@@Z
	??$addressof@QAVrange@xlslib_core@@@std@@YAPBQAVrange@xlslib_core@@ABQAV12@@Z
	??0?$allocator@D@std@@QAE@XZ
	??$forward@AAV?$_Tree_const_iterator@V?$_Tree_val@V?$_Tset_traits@PAVcell_t@xlslib_core@@Vinsertsort@2@V?$allocator@PAVcell_t@xlslib_core@@@std@@$0A@@std@@@std@@@std@@@std@@YAAAV?$_Tree_const_iterator@V?$_Tree_val@V?$_Tset_traits@PAVcell_t@xlslib_core@@Vinsertsort@2@V?$allocator@PAVcell_t@xlslib_core@@@std@@$0A@@std@@@std@@@0@AAV10@@Z
	??$_Destroy_range@V?$allocator@Urowblocksize_t@xlslib_core@@@std@@@std@@YAXPAUrowblocksize_t@xlslib_core@@0AAV?$allocator@Urowblocksize_t@xlslib_core@@@0@@Z
	?_Isnil@?$_Tree_val@V?$_Tset_traits@PAVcell_t@xlslib_core@@Vinsertsort@2@V?$allocator@PAVcell_t@xlslib_core@@@std@@$0A@@std@@@std@@SAAADPAU_Node@?$_Tree_nod@V?$_Tset_traits@PAVcell_t@xlslib_core@@Vinsertsort@2@V?$allocator@PAVcell_t@xlslib_core@@@std@@$0A@@std@@@2@@Z
	??$_Destroy_range@V?$allocator@PAVrange_t@xlslib_core@@@std@@@std@@YAXPAPAVrange_t@xlslib_core@@0AAV?$allocator@PAVrange_t@xlslib_core@@@0@U_Scalar_ptr_iterator_tag@0@@Z
	??$_Umove@PAPAVCUnit@xlslib_core@@@?$vector@PAVCUnit@xlslib_core@@V?$allocator@PAVCUnit@xlslib_core@@@std@@@std@@IAEPAPAVCUnit@xlslib_core@@PAPAV23@00@Z
	??$forward@AAPAVfont_t@xlslib_core@@@std@@YAAAPAVfont_t@xlslib_core@@AAPAV12@@Z
	??9?$_String_const_iterator@_WU?$char_traits@_W@std@@V?$allocator@_W@2@@std@@QBE_NABV01@@Z
	??$forward@ABQAUstyle_t@xlslib_core@@@std@@YAABQAUstyle_t@xlslib_core@@ABQAU12@@Z
	??$forward@AAPAVrange_t@xlslib_core@@@std@@YAAAPAVrange_t@xlslib_core@@AAPAV12@@Z
	??E?$_Vector_iterator@V?$_Vector_val@PAVCOleProp@xlslib_core@@V?$allocator@PAVCOleProp@xlslib_core@@@std@@@std@@@std@@QAE?AV01@H@Z
	?_Endwrite@?$basic_filebuf@DU?$char_traits@D@std@@@std@@IAE_NXZ
	??$forward@AAPAVHPSFitem@xlslib_core@@@std@@YAAAPAVHPSFitem@xlslib_core@@AAPAV12@@Z
	??$_Destroy_range@V?$allocator@PBVlabel_t@xlslib_core@@@std@@@std@@YAXPAPBVlabel_t@xlslib_core@@0AAV?$allocator@PBVlabel_t@xlslib_core@@@0@@Z
	??1DataValidation@xlslib_core@@QAE@XZ
	??$_Construct@PAVformula_t@xlslib_core@@ABQAV12@@std@@YAXPAPAVformula_t@xlslib_core@@ABQAV12@@Z
	??$addressof@PAV?$basic_string@DU?$char_traits@D@std@@V?$allocator@D@2@@std@@@std@@YAPAPAV?$basic_string@DU?$char_traits@D@std@@V?$allocator@D@2@@0@AAPAV10@@Z
	??1?$_Vector_val@PAVfont_t@xlslib_core@@V?$allocator@PAVfont_t@xlslib_core@@@std@@@std@@QAE@XZ
	?_Compat@?$_Vector_const_iterator@V?$_Vector_val@PAVrange@xlslib_core@@V?$allocator@PAVrange@xlslib_core@@@std@@@std@@@std@@QBEXABV12@@Z
	??$_Destroy_range@V?$allocator@PAVCUnit@xlslib_core@@@std@@@std@@YAXPAPAVCUnit@xlslib_core@@0AAV?$allocator@PAVCUnit@xlslib_core@@@0@U_Scalar_ptr_iterator_tag@0@@Z
	??$_Destroy_range@V?$allocator@PAVworksheet@xlslib_core@@@std@@@std@@YAXPAPAVworksheet@xlslib_core@@0AAV?$allocator@PAVworksheet@xlslib_core@@@0@@Z
	??0?$allocator@PAVrange_t@xlslib_core@@@std@@QAE@ABV01@@Z
	??$addressof@QAVformat_t@xlslib_core@@@std@@YAPBQAVformat_t@xlslib_core@@ABQAV12@@Z
	??$?0PAUcolinfo_t@xlslib_core@@@?$allocator@U_Node@?$_Tree_nod@V?$_Tset_traits@PAUcolinfo_t@xlslib_core@@Vcolinfosort@2@V?$allocator@PAUcolinfo_t@xlslib_core@@@std@@$0A@@std@@@std@@@std@@QAE@ABV?$allocator@PAUcolinfo_t@xlslib_core@@@1@@Z
	??1?$_Vector_val@PBVlabel_t@xlslib_core@@V?$allocator@PBVlabel_t@xlslib_core@@@std@@@std@@QAE@XZ
	?_Rmost@?$_Tree@V?$_Tset_traits@PAUcolinfo_t@xlslib_core@@Vcolinfosort@2@V?$allocator@PAUcolinfo_t@xlslib_core@@@std@@$0A@@std@@@std@@IBEAAPAU_Node@?$_Tree_nod@V?$_Tset_traits@PAUcolinfo_t@xlslib_core@@Vcolinfosort@2@V?$allocator@PAUcolinfo_t@xlslib_core@@@std@@$0A@@std@@@2@XZ
	?_Destroy@?$vector@PAVfont_t@xlslib_core@@V?$allocator@PAVfont_t@xlslib_core@@@std@@@std@@IAEXPAPAVfont_t@xlslib_core@@0@Z
	?_Compat@?$_Vector_const_iterator@V?$_Vector_val@PBVlabel_t@xlslib_core@@V?$allocator@PBVlabel_t@xlslib_core@@@std@@@std@@@std@@QBEXABV12@@Z
	?_Compat@?$_Vector_const_iterator@V?$_Vector_val@PAVCUnit@xlslib_core@@V?$allocator@PAVCUnit@xlslib_core@@@std@@@std@@@std@@QBEXABV12@@Z
	?allocate@?$allocator@U_Node@?$_Tree_nod@V?$_Tset_traits@PAVrowheight_t@xlslib_core@@Vrowheightsort@2@V?$allocator@PAVrowheight_t@xlslib_core@@@std@@$0A@@std@@@std@@@std@@QAEPAU_Node@?$_Tree_nod@V?$_Tset_traits@PAVrowheight_t@xlslib_core@@Vrowheightsort@2@V?$allocator@PAVrowheight_t@xlslib_core@@@std@@$0A@@std@@@2@I@Z
	?reserve@?$vector@Urowblocksize_t@xlslib_core@@V?$allocator@Urowblocksize_t@xlslib_core@@@std@@@std@@QAEXI@Z
	??$forward@_N@std@@YA$$QA_NAA_N@Z
	?_Kfn@?$_Tset_traits@PAVHPSFitem@xlslib_core@@Vinsertsort2@2@V?$allocator@PAVHPSFitem@xlslib_core@@@std@@$0A@@std@@SAABQAVHPSFitem@xlslib_core@@ABQAV34@@Z
	??1?$_Vector_val@PAVCUnit@xlslib_core@@V?$allocator@PAVCUnit@xlslib_core@@@std@@@std@@QAE@XZ
	?_Inside@?$vector@PBVlabel_t@xlslib_core@@V?$allocator@PBVlabel_t@xlslib_core@@@std@@@std@@IBE_NPBQBVlabel_t@xlslib_core@@@Z
	?underlying_stream@str_stream@@QBEAAV?$basic_stringstream@DU?$char_traits@D@std@@V?$allocator@D@2@@std@@XZ
	??$_Destroy_range@V?$allocator@PAUstyle_t@xlslib_core@@@std@@@std@@YAXPAPAUstyle_t@xlslib_core@@0AAV?$allocator@PAUstyle_t@xlslib_core@@@0@U_Scalar_ptr_iterator_tag@0@@Z
	??0?$allocator@PAVformula_t@xlslib_core@@@std@@QAE@XZ
	??0?$allocator@PAUstyle_t@xlslib_core@@@std@@QAE@ABV01@@Z
	?GetRecordDataSize@CRecord@xlslib_core@@QBEIXZ
	??1?$_String_val@GV?$allocator@G@std@@@std@@QAE@XZ
	??$addressof@PAVHPSFitem@xlslib_core@@@std@@YAPAPAVHPSFitem@xlslib_core@@AAPAV12@@Z
	??0?$allocator@I@std@@QAE@XZ
	??$forward@AAPAVformula_t@xlslib_core@@@std@@YAAAPAVformula_t@xlslib_core@@AAPAV12@@Z
	??$move@AAV?$_Tree_const_iterator@V?$_Tree_val@V?$_Tset_traits@PAVHPSFitem@xlslib_core@@Vinsertsort2@2@V?$allocator@PAVHPSFitem@xlslib_core@@@std@@$0A@@std@@@std@@@std@@@std@@YA$$QAV?$_Tree_const_iterator@V?$_Tree_val@V?$_Tset_traits@PAVHPSFitem@xlslib_core@@Vinsertsort2@2@V?$allocator@PAVHPSFitem@xlslib_core@@@std@@$0A@@std@@@std@@@0@AAV10@@Z
	?_Reserve@?$vector@PAVrange_t@xlslib_core@@V?$allocator@PAVrange_t@xlslib_core@@@std@@@std@@IAEXI@Z
	?construct@?$allocator@PAVformula_t@xlslib_core@@@std@@QAEXPAPAVformula_t@xlslib_core@@ABQAV34@@Z
	?_Buynode@?$_Tree_val@V?$_Tset_traits@U?$pair@PAVxf_t@xlslib_core@@UborderedXft@2@@std@@VxfSorter@xlslib_core@@V?$allocator@U?$pair@PAVxf_t@xlslib_core@@UborderedXft@2@@std@@@2@$0A@@std@@@std@@QAEPAU_Node@?$_Tree_nod@V?$_Tset_traits@U?$pair@PAVxf_t@xlslib_core@@UborderedXft@2@@std@@VxfSorter@xlslib_core@@V?$allocator@U?$pair@PAVxf_t@xlslib_core@@UborderedXft@2@@std@@@2@$0A@@std@@@2@XZ
	?_Xlen@?$vector@PAVCUnit@xlslib_core@@V?$allocator@PAVCUnit@xlslib_core@@@std@@@std@@IBEXXZ
	?equal_range@?$_Tree@V?$_Tset_traits@PAVcell_t@xlslib_core@@Vinsertsort@2@V?$allocator@PAVcell_t@xlslib_core@@@std@@$0A@@std@@@std@@QAE?AU?$pair@V?$_Tree_const_iterator@V?$_Tree_val@V?$_Tset_traits@PAVcell_t@xlslib_core@@Vinsertsort@2@V?$allocator@PAVcell_t@xlslib_core@@@std@@$0A@@std@@@std@@@std@@V12@@2@ABQAVcell_t@xlslib_core@@@Z
	?_Xlen@?$vector@PAVformat_t@xlslib_core@@V?$allocator@PAVformat_t@xlslib_core@@@std@@@std@@IBEXXZ
	?size@?$vector@PAVboundsheet_t@xlslib_core@@V?$allocator@PAVboundsheet_t@xlslib_core@@@std@@@std@@QBEIXZ
	?_Inside@?$vector@PAVrange@xlslib_core@@V?$allocator@PAVrange@xlslib_core@@@std@@@std@@IBE_NPBQAVrange@xlslib_core@@@Z
	?_Xlen@?$vector@IV?$allocator@I@std@@@std@@IBEXXZ
	?_Xlen@?$vector@Urowblocksize_t@xlslib_core@@V?$allocator@Urowblocksize_t@xlslib_core@@@std@@@std@@IBEXXZ
	?_Xlen@?$vector@V?$basic_string@DU?$char_traits@D@std@@V?$allocator@D@2@@std@@V?$allocator@V?$basic_string@DU?$char_traits@D@std@@V?$allocator@D@2@@std@@@2@@std@@IBEXXZ
	?_Xlen@?$vector@PAVfont_t@xlslib_core@@V?$allocator@PAVfont_t@xlslib_core@@@std@@@std@@IBEXXZ
	?_Xlen@?$vector@PAUstyle_t@xlslib_core@@V?$allocator@PAUstyle_t@xlslib_core@@@std@@@std@@IBEXXZ
	?_Xlen@?$vector@PAVCOleProp@xlslib_core@@V?$allocator@PAVCOleProp@xlslib_core@@@std@@@std@@IBEXXZ
	?_Xlen@?$vector@PAVformula_t@xlslib_core@@V?$allocator@PAVformula_t@xlslib_core@@@std@@@std@@IBEXXZ
	??0?$_Vector_val@V?$basic_string@DU?$char_traits@D@std@@V?$allocator@D@2@@std@@V?$allocator@V?$basic_string@DU?$char_traits@D@std@@V?$allocator@D@2@@std@@@2@@std@@QAE@V?$allocator@V?$basic_string@DU?$char_traits@D@std@@V?$allocator@D@2@@std@@@1@@Z
	?_Xlen@?$vector@PAVworksheet@xlslib_core@@V?$allocator@PAVworksheet@xlslib_core@@@std@@@std@@IBEXXZ
	?_Xlen@?$vector@PAUDataValidation@xlslib_core@@V?$allocator@PAUDataValidation@xlslib_core@@@std@@@std@@IBEXXZ
	?_Xlen@?$vector@V?$basic_string@_WU?$char_traits@_W@std@@V?$allocator@_W@2@@std@@V?$allocator@V?$basic_string@_WU?$char_traits@_W@std@@V?$allocator@_W@2@@std@@@2@@std@@IBEXXZ
	??E?$_Vector_iterator@V?$_Vector_val@PAVCUnit@xlslib_core@@V?$allocator@PAVCUnit@xlslib_core@@@std@@@std@@@std@@QAEAAV01@XZ
	??E?$_Vector_iterator@V?$_Vector_val@PAVfont_t@xlslib_core@@V?$allocator@PAVfont_t@xlslib_core@@@std@@@std@@@std@@QAEAAV01@XZ
	??E?$_Vector_iterator@V?$_Vector_val@PAVxf_t@xlslib_core@@V?$allocator@PAVxf_t@xlslib_core@@@std@@@std@@@std@@QAEAAV01@XZ
	??E?$_Vector_const_iterator@V?$_Vector_val@IV?$allocator@I@std@@@std@@@std@@QAEAAV01@XZ
	??E?$_Vector_iterator@V?$_Vector_val@PBVlabel_t@xlslib_core@@V?$allocator@PBVlabel_t@xlslib_core@@@std@@@std@@@std@@QAEAAV01@XZ
	??$_Ptr_cat@PAUDataValidation@xlslib_core@@PAU12@@std@@YA?AU_Scalar_ptr_iterator_tag@0@PAPAUDataValidation@xlslib_core@@0@Z
	??E?$_Vector_iterator@V?$_Vector_val@PAUstyle_t@xlslib_core@@V?$allocator@PAUstyle_t@xlslib_core@@@std@@@std@@@std@@QAEAAV01@XZ
	??E?$_Vector_const_iterator@V?$_Vector_val@PAVboundsheet_t@xlslib_core@@V?$allocator@PAVboundsheet_t@xlslib_core@@@std@@@std@@@std@@QAEAAV01@XZ
	?_Inside@?$vector@PAUDataValidation@xlslib_core@@V?$allocator@PAUDataValidation@xlslib_core@@@std@@@std@@IBE_NPBQAUDataValidation@xlslib_core@@@Z
	??E?$_Vector_iterator@V?$_Vector_val@PAVrange@xlslib_core@@V?$allocator@PAVrange@xlslib_core@@@std@@@std@@@std@@QAEAAV01@XZ
	??E?$_Vector_iterator@V?$_Vector_val@PAVworksheet@xlslib_core@@V?$allocator@PAVworksheet@xlslib_core@@@std@@@std@@@std@@QAEAAV01@XZ
	??E?$_Vector_const_iterator@V?$_Vector_val@PAUstyle_t@xlslib_core@@V?$allocator@PAUstyle_t@xlslib_core@@@std@@@std@@@std@@QAEAAV01@XZ
	?deallocate@?$allocator@_W@std@@QAEXPA_WI@Z
	??E?$_Vector_const_iterator@V?$_Vector_val@PAVworksheet@xlslib_core@@V?$allocator@PAVworksheet@xlslib_core@@@std@@@std@@@std@@QAEAAV01@XZ
	??E?$_Vector_const_iterator@V?$_Vector_val@PAVCUnit@xlslib_core@@V?$allocator@PAVCUnit@xlslib_core@@@std@@@std@@@std@@QAEAAV01@XZ
	??E?$_Vector_const_iterator@V?$_Vector_val@PBVlabel_t@xlslib_core@@V?$allocator@PBVlabel_t@xlslib_core@@@std@@@std@@@std@@QAEAAV01@XZ
	??E?$_Vector_iterator@V?$_Vector_val@PAVrange_t@xlslib_core@@V?$allocator@PAVrange_t@xlslib_core@@@std@@@std@@@std@@QAEAAV01@XZ
	??E?$_Vector_const_iterator@V?$_Vector_val@PAVfont_t@xlslib_core@@V?$allocator@PAVfont_t@xlslib_core@@@std@@@std@@@std@@QAEAAV01@XZ
	??E?$_Vector_const_iterator@V?$_Vector_val@PAVformula_t@xlslib_core@@V?$allocator@PAVformula_t@xlslib_core@@@std@@@std@@@std@@QAEAAV01@XZ
	??E?$_Vector_iterator@V?$_Vector_val@PAUDataValidation@xlslib_core@@V?$allocator@PAUDataValidation@xlslib_core@@@std@@@std@@@std@@QAEAAV01@XZ
	??E?$_Vector_const_iterator@V?$_Vector_val@PAVformat_t@xlslib_core@@V?$allocator@PAVformat_t@xlslib_core@@@std@@@std@@@std@@QAEAAV01@XZ
	??$_Pop_heap_0@PAPAVCOleProp@xlslib_core@@PAV12@P6A_NPBV12@0@Z@std@@YAXPAPAVCOleProp@xlslib_core@@0P6A_NPBV12@1@Z0@Z
	??E?$_Vector_iterator@V?$_Vector_val@PAVformula_t@xlslib_core@@V?$allocator@PAVformula_t@xlslib_core@@@std@@@std@@@std@@QAEAAV01@XZ
	??E?$_Vector_iterator@V?$_Vector_val@IV?$allocator@I@std@@@std@@@std@@QAEAAV01@XZ
	??E?$_Vector_iterator@V?$_Vector_val@PAVCOleProp@xlslib_core@@V?$allocator@PAVCOleProp@xlslib_core@@@std@@@std@@@std@@QAEAAV01@XZ
	??E?$_Vector_const_iterator@V?$_Vector_val@PAVxf_t@xlslib_core@@V?$allocator@PAVxf_t@xlslib_core@@@std@@@std@@@std@@QAEAAV01@XZ
	??0?$vector@PAVworksheet@xlslib_core@@V?$allocator@PAVworksheet@xlslib_core@@@std@@@std@@QAE@XZ
	??H?$_String_iterator@DU?$char_traits@D@std@@V?$allocator@D@2@@std@@QBE?AV01@H@Z
	??H?$_String_iterator@GU?$char_traits@G@std@@V?$allocator@G@2@@std@@QBE?AV01@H@Z
	??G?$_String_const_iterator@GU?$char_traits@G@std@@V?$allocator@G@2@@std@@QBEHABV01@@Z
	?_Tidy@?$_Tree@V?$_Tset_traits@PAVHPSFitem@xlslib_core@@Vinsertsort2@2@V?$allocator@PAVHPSFitem@xlslib_core@@@std@@$0A@@std@@@std@@IAEXXZ
	??0?$pair@V?$_Tree_const_iterator@V?$_Tree_val@V?$_Tset_traits@PAVrowheight_t@xlslib_core@@Vrowheightsort@2@V?$allocator@PAVrowheight_t@xlslib_core@@@std@@$0A@@std@@@std@@@std@@_N@std@@QAE@$$QAV?$_Tree_const_iterator@V?$_Tree_val@V?$_Tset_traits@PAVrowheight_t@xlslib_core@@Vrowheightsort@2@V?$allocator@PAVrowheight_t@xlslib_core@@@std@@$0A@@std@@@std@@@1@$$QA_N@Z
	??Y?$_String_const_iterator@GU?$char_traits@G@std@@V?$allocator@G@2@@std@@QAEAAV01@H@Z
	??Y?$_String_const_iterator@DU?$char_traits@D@std@@V?$allocator@D@2@@std@@QAEAAV01@H@Z
	??$_Move@PAPAUDataValidation@xlslib_core@@PAPAU12@@std@@YAPAPAUDataValidation@xlslib_core@@PAPAU12@00U_Scalar_ptr_iterator_tag@0@@Z
	?_Rank@?$_Arithmetic_traits@D@std@@2HB
	??$_Move@PAPAVxf_t@xlslib_core@@PAPAV12@@std@@YAPAPAVxf_t@xlslib_core@@PAPAV12@00@Z
	??$_Move@PAPAUstyle_t@xlslib_core@@PAPAU12@@std@@YAPAPAUstyle_t@xlslib_core@@PAPAU12@00U_Scalar_ptr_iterator_tag@0@@Z
	??$_Move@PAPBVlabel_t@xlslib_core@@PAPBV12@@std@@YAPAPBVlabel_t@xlslib_core@@PAPBV12@00@Z
	??$_Move@PAPAVboundsheet_t@xlslib_core@@PAPAV12@@std@@YAPAPAVboundsheet_t@xlslib_core@@PAPAV12@00U_Scalar_ptr_iterator_tag@0@@Z
	??$_Move@PAPAVformat_t@xlslib_core@@PAPAV12@@std@@YAPAPAVformat_t@xlslib_core@@PAPAV12@00U_Scalar_ptr_iterator_tag@0@@Z
	?setType@label_t@xlslib_core@@AAEXXZ
	??$_Move@PAPAVrange@xlslib_core@@PAPAV12@@std@@YAPAPAVrange@xlslib_core@@PAPAV12@00U_Scalar_ptr_iterator_tag@0@@Z
	?format@workbook@xlslib_core@@QAEPAVformat_t@2@ABV?$basic_string@DU?$char_traits@D@std@@V?$allocator@D@2@@std@@@Z
	??$_Move@PAPAUHyperLink@xlslib_core@@PAPAU12@@std@@YAPAPAUHyperLink@xlslib_core@@PAPAU12@00U_Scalar_ptr_iterator_tag@0@@Z
	??1workbook@xlslib_core@@UAE@XZ
	??$_Move@PAPBVlabel_t@xlslib_core@@PAPBV12@@std@@YAPAPBVlabel_t@xlslib_core@@PAPBV12@00U_Scalar_ptr_iterator_tag@0@@Z
	??0?$pair@V?$_Tree_const_iterator@V?$_Tree_val@V?$_Tset_traits@U?$pair@PAVxf_t@xlslib_core@@UborderedXft@2@@std@@VxfSorter@xlslib_core@@V?$allocator@U?$pair@PAVxf_t@xlslib_core@@UborderedXft@2@@std@@@2@$0A@@std@@@std@@@std@@_N@std@@QAE@$$QAV?$_Tree_const_iterator@V?$_Tree_val@V?$_Tset_traits@U?$pair@PAVxf_t@xlslib_core@@UborderedXft@2@@std@@VxfSorter@xlslib_core@@V?$allocator@U?$pair@PAVxf_t@xlslib_core@@UborderedXft@2@@std@@@2@$0A@@std@@@std@@@1@$$QA_N@Z
	??D?$_List_const_iterator@V?$_List_val@PAV?$basic_string@DU?$char_traits@D@std@@V?$allocator@D@2@@std@@V?$allocator@PAV?$basic_string@DU?$char_traits@D@std@@V?$allocator@D@2@@std@@@2@@std@@@std@@QBEABQAV?$basic_string@DU?$char_traits@D@std@@V?$allocator@D@2@@1@XZ
	??$_Move@PAPAUHyperLink@xlslib_core@@PAPAU12@@std@@YAPAPAUHyperLink@xlslib_core@@PAPAU12@00@Z
	??$_Move@PAPAUstyle_t@xlslib_core@@PAPAU12@@std@@YAPAPAUstyle_t@xlslib_core@@PAPAU12@00@Z
	??$_Move@PAPAVxf_t@xlslib_core@@PAPAV12@@std@@YAPAPAVxf_t@xlslib_core@@PAPAV12@00U_Scalar_ptr_iterator_tag@0@@Z
	??$_Move@PAPAVfont_t@xlslib_core@@PAPAV12@@std@@YAPAPAVfont_t@xlslib_core@@PAPAV12@00@Z
	??$_Move@PAPAVrange@xlslib_core@@PAPAV12@@std@@YAPAPAVrange@xlslib_core@@PAPAV12@00@Z
	??$_Move@PAPAVCUnit@xlslib_core@@PAPAV12@@std@@YAPAPAVCUnit@xlslib_core@@PAPAV12@00@Z
	?_Right@?$_Tree_val@V?$_Tset_traits@U?$pair@PAVxf_t@xlslib_core@@UborderedXft@2@@std@@VxfSorter@xlslib_core@@V?$allocator@U?$pair@PAVxf_t@xlslib_core@@UborderedXft@2@@std@@@2@$0A@@std@@@std@@SAAAPAU_Node@?$_Tree_nod@V?$_Tset_traits@U?$pair@PAVxf_t@xlslib_core@@UborderedXft@2@@std@@VxfSorter@xlslib_core@@V?$allocator@U?$pair@PAVxf_t@xlslib_core@@UborderedXft@2@@std@@@2@$0A@@std@@@2@PAU342@@Z
	??$_Move@PAPAVrange_t@xlslib_core@@PAPAV12@@std@@YAPAPAVrange_t@xlslib_core@@PAPAV12@00@Z
	??$_Move@PAPAVformula_t@xlslib_core@@PAPAV12@@std@@YAPAPAVformula_t@xlslib_core@@PAPAV12@00@Z
	??$_Move@PAPAVboundsheet_t@xlslib_core@@PAPAV12@@std@@YAPAPAVboundsheet_t@xlslib_core@@PAPAV12@00@Z
	??$_Move@PAPAVformula_t@xlslib_core@@PAPAV12@@std@@YAPAPAVformula_t@xlslib_core@@PAPAV12@00U_Scalar_ptr_iterator_tag@0@@Z
	??$_Move@PAIPAI@std@@YAPAIPAI00@Z
	??$_Uninitialized_move@PAPAVfont_t@xlslib_core@@PAPAV12@V?$allocator@PAVfont_t@xlslib_core@@@std@@@std@@YAPAPAVfont_t@xlslib_core@@PAPAV12@00AAV?$allocator@PAVfont_t@xlslib_core@@@0@@Z
	??$_Uninit_move@PAVformat_t@xlslib_core@@PAV12@PAV12@@std@@YAPAPAVformat_t@xlslib_core@@PAPAV12@00AAV?$allocator@PAVformat_t@xlslib_core@@@0@0U_Scalar_ptr_iterator_tag@0@@Z
	?begin@?$vector@PBVlabel_t@xlslib_core@@V?$allocator@PBVlabel_t@xlslib_core@@@std@@@std@@QAE?AV?$_Vector_iterator@V?$_Vector_val@PBVlabel_t@xlslib_core@@V?$allocator@PBVlabel_t@xlslib_core@@@std@@@std@@@2@XZ
	??$_Uninit_move@PAUDataValidation@xlslib_core@@PAU12@PAU12@@std@@YAPAPAUDataValidation@xlslib_core@@PAPAU12@00AAV?$allocator@PAUDataValidation@xlslib_core@@@0@0U_Scalar_ptr_iterator_tag@0@@Z
	?_Make_iter@?$vector@PAVCUnit@xlslib_core@@V?$allocator@PAVCUnit@xlslib_core@@@std@@@std@@QBE?AV?$_Vector_iterator@V?$_Vector_val@PAVCUnit@xlslib_core@@V?$allocator@PAVCUnit@xlslib_core@@@std@@@std@@@2@V?$_Vector_const_iterator@V?$_Vector_val@PAVCUnit@xlslib_core@@V?$allocator@PAVCUnit@xlslib_core@@@std@@@std@@@2@@Z
	??$_Uninitialized_move@PAPAUstyle_t@xlslib_core@@PAPAU12@V?$allocator@PAUstyle_t@xlslib_core@@@std@@@std@@YAPAPAUstyle_t@xlslib_core@@PAPAU12@00AAV?$allocator@PAUstyle_t@xlslib_core@@@0@@Z
	??$_Uninitialized_move@PAPAVformula_t@xlslib_core@@PAPAV12@V?$allocator@PAVformula_t@xlslib_core@@@std@@@std@@YAPAPAVformula_t@xlslib_core@@PAPAV12@00AAV?$allocator@PAVformula_t@xlslib_core@@@0@@Z
	??$_Uninit_move@PAVworksheet@xlslib_core@@PAV12@PAV12@@std@@YAPAPAVworksheet@xlslib_core@@PAPAV12@00AAV?$allocator@PAVworksheet@xlslib_core@@@0@0U_Scalar_ptr_iterator_tag@0@@Z
	??$_Uninitialized_move@PAPAVrange_t@xlslib_core@@PAPAV12@V?$allocator@PAVrange_t@xlslib_core@@@std@@@std@@YAPAPAVrange_t@xlslib_core@@PAPAV12@00AAV?$allocator@PAVrange_t@xlslib_core@@@0@@Z
	??$_Uninitialized_move@PAPAUHyperLink@xlslib_core@@PAPAU12@V?$allocator@PAUHyperLink@xlslib_core@@@std@@@std@@YAPAPAUHyperLink@xlslib_core@@PAPAU12@00AAV?$allocator@PAUHyperLink@xlslib_core@@@0@@Z
	??$_Uninit_move@PAVxf_t@xlslib_core@@PAV12@PAV12@@std@@YAPAPAVxf_t@xlslib_core@@PAPAV12@00AAV?$allocator@PAVxf_t@xlslib_core@@@0@0U_Scalar_ptr_iterator_tag@0@@Z
	??$_Uninitialized_move@PAPAVCOleProp@xlslib_core@@PAPAV12@V?$allocator@PAVCOleProp@xlslib_core@@@std@@@std@@YAPAPAVCOleProp@xlslib_core@@PAPAV12@00AAV?$allocator@PAVCOleProp@xlslib_core@@@0@@Z
	??$_Uninitialized_move@PAPAVxf_t@xlslib_core@@PAPAV12@V?$allocator@PAVxf_t@xlslib_core@@@std@@@std@@YAPAPAVxf_t@xlslib_core@@PAPAV12@00AAV?$allocator@PAVxf_t@xlslib_core@@@0@@Z
	??$_Uninit_move@PAVfont_t@xlslib_core@@PAV12@PAV12@@std@@YAPAPAVfont_t@xlslib_core@@PAPAV12@00AAV?$allocator@PAVfont_t@xlslib_core@@@0@0U_Scalar_ptr_iterator_tag@0@@Z
	??0?$vector@PBVlabel_t@xlslib_core@@V?$allocator@PBVlabel_t@xlslib_core@@@std@@@std@@QAE@XZ
	??$_Uninit_move@PAVrange@xlslib_core@@PAV12@PAV12@@std@@YAPAPAVrange@xlslib_core@@PAPAV12@00AAV?$allocator@PAVrange@xlslib_core@@@0@0U_Scalar_ptr_iterator_tag@0@@Z
	??$_Uninit_move@PAVCOleProp@xlslib_core@@PAV12@PAV12@@std@@YAPAPAVCOleProp@xlslib_core@@PAPAV12@00AAV?$allocator@PAVCOleProp@xlslib_core@@@0@0U_Scalar_ptr_iterator_tag@0@@Z
	??$_Uninit_move@PAVCUnit@xlslib_core@@PAV12@PAV12@@std@@YAPAPAVCUnit@xlslib_core@@PAPAV12@00AAV?$allocator@PAVCUnit@xlslib_core@@@0@0U_Scalar_ptr_iterator_tag@0@@Z
	??$_Uninit_move@PAVrange_t@xlslib_core@@PAV12@PAV12@@std@@YAPAPAVrange_t@xlslib_core@@PAPAV12@00AAV?$allocator@PAVrange_t@xlslib_core@@@0@0U_Scalar_ptr_iterator_tag@0@@Z
	??$_Uninitialized_move@PAIPAIV?$allocator@I@std@@@std@@YAPAIPAI00AAV?$allocator@I@0@@Z
	??$_Uninitialized_move@PAPAUDataValidation@xlslib_core@@PAPAU12@V?$allocator@PAUDataValidation@xlslib_core@@@std@@@std@@YAPAPAUDataValidation@xlslib_core@@PAPAU12@00AAV?$allocator@PAUDataValidation@xlslib_core@@@0@@Z
	??$_Uninit_move@PAUHyperLink@xlslib_core@@PAU12@PAU12@@std@@YAPAPAUHyperLink@xlslib_core@@PAPAU12@00AAV?$allocator@PAUHyperLink@xlslib_core@@@0@0U_Scalar_ptr_iterator_tag@0@@Z
	??$_Uninit_move@PBVlabel_t@xlslib_core@@PBV12@PBV12@@std@@YAPAPBVlabel_t@xlslib_core@@PAPBV12@00AAV?$allocator@PBVlabel_t@xlslib_core@@@0@0U_Scalar_ptr_iterator_tag@0@@Z
	??$_Uninitialized_move@PAPAVrange@xlslib_core@@PAPAV12@V?$allocator@PAVrange@xlslib_core@@@std@@@std@@YAPAPAVrange@xlslib_core@@PAPAV12@00AAV?$allocator@PAVrange@xlslib_core@@@0@@Z
	??$_Val_type@PAPBVlabel_t@xlslib_core@@@std@@YAPAPBVlabel_t@xlslib_core@@PAPBV12@@Z
	??$_Val_type@PAPAVxf_t@xlslib_core@@@std@@YAPAPAVxf_t@xlslib_core@@PAPAV12@@Z
	?not_eof@?$char_traits@D@std@@SAHABH@Z
	??$_Dist_type@PAPAVCOleProp@xlslib_core@@@std@@YAPAHPAPAVCOleProp@xlslib_core@@@Z
	?AlreadyContinued@CUnit@xlslib_core@@QBE_NXZ
	??$_Val_type@PAPAVrange_t@xlslib_core@@@std@@YAPAPAVrange_t@xlslib_core@@PAPAV12@@Z
	??$_Val_type@PAPAVfont_t@xlslib_core@@@std@@YAPAPAVfont_t@xlslib_core@@PAPAV12@@Z
	??$_Val_type@PAPAVformat_t@xlslib_core@@@std@@YAPAPAVformat_t@xlslib_core@@PAPAV12@@Z
	??$_Val_type@PAV?$basic_string@_WU?$char_traits@_W@std@@V?$allocator@_W@2@@std@@@std@@YAPAV?$basic_string@_WU?$char_traits@_W@std@@V?$allocator@_W@2@@0@PAV10@@Z
	??$_Val_type@PAPAVformula_t@xlslib_core@@@std@@YAPAPAVformula_t@xlslib_core@@PAPAV12@@Z
	??$_Val_type@PAPAUHyperLink@xlslib_core@@@std@@YAPAPAUHyperLink@xlslib_core@@PAPAU12@@Z
	??$_Val_type@PAN@std@@YAPANPAN@Z
	??$_Val_type@PAUrowblocksize_t@xlslib_core@@@std@@YAPAUrowblocksize_t@xlslib_core@@PAU12@@Z
	??$_Val_type@PAPAVrange@xlslib_core@@@std@@YAPAPAVrange@xlslib_core@@PAPAV12@@Z
	?deallocate@?$allocator@PAVformula_t@xlslib_core@@@std@@QAEXPAPAVformula_t@xlslib_core@@I@Z
	??0?$vector@PAVCUnit@xlslib_core@@V?$allocator@PAVCUnit@xlslib_core@@@std@@@std@@QAE@XZ
	?GetParentIndex@xf_t@xlslib_core@@QBEGXZ
	??$_Val_type@PAV?$basic_string@DU?$char_traits@D@std@@V?$allocator@D@2@@std@@@std@@YAPAV?$basic_string@DU?$char_traits@D@std@@V?$allocator@D@2@@0@PAV10@@Z
	??$_Val_type@PAVCUnitStore@xlslib_core@@@std@@YAPAVCUnitStore@xlslib_core@@PAV12@@Z
	??$_Val_type@PAPAVworksheet@xlslib_core@@@std@@YAPAPAVworksheet@xlslib_core@@PAPAV12@@Z
	??$_Dist_type@PAVCUnitStore@xlslib_core@@@std@@YAPAHPAVCUnitStore@xlslib_core@@@Z
	??$_Val_type@PAI@std@@YAPAIPAI@Z
	??$_Val_type@PAPAVCOleProp@xlslib_core@@@std@@YAPAPAVCOleProp@xlslib_core@@PAPAV12@@Z
	?GetValue@HPSFitem@xlslib_core@@QBE?AThValue@2@XZ
	?GetVariant@HPSFitem@xlslib_core@@QBEGXZ
	??Rinsertsort2@xlslib_core@@QBE_NPAVHPSFitem@1@0@Z
	?clear@?$_Tree@V?$_Tset_traits@PAVrowheight_t@xlslib_core@@Vrowheightsort@2@V?$allocator@PAVrowheight_t@xlslib_core@@@std@@$0A@@std@@@std@@QAEXXZ
	??0HPSFitem@xlslib_core@@QAE@GABV?$basic_string@DU?$char_traits@D@std@@V?$allocator@D@2@@std@@@Z
	??$_Construct@PAVCUnit@xlslib_core@@ABQAV12@@std@@YAXPAPAVCUnit@xlslib_core@@ABQAV12@@Z
	??0HPSFitem@xlslib_core@@QAE@G_N@Z
	??$_Ptr_cat@PAUstyle_t@xlslib_core@@PAU12@@std@@YA?AU_Scalar_ptr_iterator_tag@0@PAPAUstyle_t@xlslib_core@@0@Z
	??0HPSFitem@xlslib_core@@QAE@GG@Z
	??0HPSFitem@xlslib_core@@QAE@GI@Z
	?GetSize@HPSFitem@xlslib_core@@QAEIXZ
	??0hpsf_doc_t@xlslib_core@@QAE@W4_docType_t@1@@Z
	?insert@hpsf_doc_t@xlslib_core@@AAEXPAVHPSFitem@2@@Z
	?GetSize@hpsf_doc_t@xlslib_core@@UBEIXZ
	?INDENT_OPTIONS_TABLE@xf_t@xlslib_core@@0QBEB
	?_Min@?$_Tree_val@V?$_Tset_traits@PAVcell_t@xlslib_core@@Vinsertsort@2@V?$allocator@PAVcell_t@xlslib_core@@@std@@$0A@@std@@@std@@SAPAU_Node@?$_Tree_nod@V?$_Tset_traits@PAVcell_t@xlslib_core@@Vinsertsort@2@V?$allocator@PAVcell_t@xlslib_core@@@std@@$0A@@std@@@2@PAU342@@Z
	?GetData@hpsf_doc_t@xlslib_core@@UBEPAVCUnit@2@AAVCDataStorage@2@@Z
	??0CHPSFdoc@xlslib_core@@IAE@AAVCDataStorage@1@ABVhpsf_doc_t@1@@Z
	??1CNumber@xlslib_core@@EAE@XZ
	??1?$_Tree@V?$_Tset_traits@PAVrowheight_t@xlslib_core@@Vrowheightsort@2@V?$allocator@PAVrowheight_t@xlslib_core@@@std@@$0A@@std@@@std@@QAE@XZ
	??1?$_Tree@V?$_Tset_traits@PAVHPSFitem@xlslib_core@@Vinsertsort2@2@V?$allocator@PAVHPSFitem@xlslib_core@@@std@@$0A@@std@@@std@@QAE@XZ
	?SetNextIndex@COleProp@xlslib_core@@QAEHH@Z
	??1?$set@PAVcell_t@xlslib_core@@Vinsertsort@2@V?$allocator@PAVcell_t@xlslib_core@@@std@@@std@@QAE@XZ
	??0?$_Vector_val@PAVCUnit@xlslib_core@@V?$allocator@PAVCUnit@xlslib_core@@@std@@@std@@QAE@V?$allocator@PAVCUnit@xlslib_core@@@1@@Z
	??1?$_Tree@V?$_Tset_traits@PAVcell_t@xlslib_core@@Vinsertsort@2@V?$allocator@PAVcell_t@xlslib_core@@@std@@$0A@@std@@@std@@QAE@XZ
	??1?$set@PAUcolinfo_t@xlslib_core@@Vcolinfosort@2@V?$allocator@PAUcolinfo_t@xlslib_core@@@std@@@std@@QAE@XZ
	??D?$_Tree_const_iterator@V?$_Tree_val@V?$_Tset_traits@PAVHPSFitem@xlslib_core@@Vinsertsort2@2@V?$allocator@PAVHPSFitem@xlslib_core@@@std@@$0A@@std@@@std@@@std@@QBEABQAVHPSFitem@xlslib_core@@XZ
	??D?$_Tree_const_iterator@V?$_Tree_val@V?$_Tset_traits@PAVrowheight_t@xlslib_core@@Vrowheightsort@2@V?$allocator@PAVrowheight_t@xlslib_core@@@std@@$0A@@std@@@std@@@std@@QBEABQAVrowheight_t@xlslib_core@@XZ
	??D?$_Tree_const_iterator@V?$_Tree_val@V?$_Tset_traits@U?$pair@PAVxf_t@xlslib_core@@UborderedXft@2@@std@@VxfSorter@xlslib_core@@V?$allocator@U?$pair@PAVxf_t@xlslib_core@@UborderedXft@2@@std@@@2@$0A@@std@@@std@@@std@@QBEABU?$pair@PAVxf_t@xlslib_core@@UborderedXft@2@@1@XZ
	?equal_range@?$_Tree@V?$_Tset_traits@PAVHPSFitem@xlslib_core@@Vinsertsort2@2@V?$allocator@PAVHPSFitem@xlslib_core@@@std@@$0A@@std@@@std@@QAE?AU?$pair@V?$_Tree_const_iterator@V?$_Tree_val@V?$_Tset_traits@PAVHPSFitem@xlslib_core@@Vinsertsort2@2@V?$allocator@PAVHPSFitem@xlslib_core@@@std@@$0A@@std@@@std@@@std@@V12@@2@ABQAVHPSFitem@xlslib_core@@@Z
	?_Eqrange@?$_Tree@V?$_Tset_traits@PAVHPSFitem@xlslib_core@@Vinsertsort2@2@V?$allocator@PAVHPSFitem@xlslib_core@@@std@@$0A@@std@@@std@@IAE?AU?$pair@V?$_Tree_const_iterator@V?$_Tree_val@V?$_Tset_traits@PAVHPSFitem@xlslib_core@@Vinsertsort2@2@V?$allocator@PAVHPSFitem@xlslib_core@@@std@@$0A@@std@@@std@@@std@@V12@@2@ABQAVHPSFitem@xlslib_core@@@Z
	??0?$_Tree_val@V?$_Tset_traits@PAVcell_t@xlslib_core@@Vinsertsort@2@V?$allocator@PAVcell_t@xlslib_core@@@std@@$0A@@std@@@std@@QAE@ABVinsertsort@xlslib_core@@V?$allocator@PAVcell_t@xlslib_core@@@1@@Z
	??0?$_Tree_val@V?$_Tset_traits@PAVrowheight_t@xlslib_core@@Vrowheightsort@2@V?$allocator@PAVrowheight_t@xlslib_core@@@std@@$0A@@std@@@std@@QAE@ABVrowheightsort@xlslib_core@@V?$allocator@PAVrowheight_t@xlslib_core@@@1@@Z
	??1COleDoc@xlslib_core@@UAE@XZ
	?assign@?$basic_string@DU?$char_traits@D@std@@V?$allocator@D@2@@std@@QAEAAV12@ID@Z
	??0?$_Tree_val@V?$_Tset_traits@PAUcolinfo_t@xlslib_core@@Vcolinfosort@2@V?$allocator@PAUcolinfo_t@xlslib_core@@@std@@$0A@@std@@@std@@QAE@ABVcolinfosort@xlslib_core@@V?$allocator@PAUcolinfo_t@xlslib_core@@@1@@Z
	??0?$_Tree_const_iterator@V?$_Tree_val@V?$_Tset_traits@U?$pair@PAVxf_t@xlslib_core@@UborderedXft@2@@std@@VxfSorter@xlslib_core@@V?$allocator@U?$pair@PAVxf_t@xlslib_core@@UborderedXft@2@@std@@@2@$0A@@std@@@std@@@std@@QAE@PAU_Node@?$_Tree_nod@V?$_Tset_traits@U?$pair@PAVxf_t@xlslib_core@@UborderedXft@2@@std@@VxfSorter@xlslib_core@@V?$allocator@U?$pair@PAVxf_t@xlslib_core@@UborderedXft@2@@std@@@2@$0A@@std@@@1@PBV?$_Tree_val@V?$_Tset_traits@U?$pair@PAVxf_t@xlslib_core@@UborderedXft@2@@std@@VxfSorter@xlslib_core@@V?$allocator@U?$pair@PAVxf_t@xlslib_core@@UborderedXft@2@@std@@@2@$0A@@std@@@1@@Z
	??0?$_Tree_const_iterator@V?$_Tree_val@V?$_Tset_traits@PAUcolinfo_t@xlslib_core@@Vcolinfosort@2@V?$allocator@PAUcolinfo_t@xlslib_core@@@std@@$0A@@std@@@std@@@std@@QAE@PAU_Node@?$_Tree_nod@V?$_Tset_traits@PAUcolinfo_t@xlslib_core@@Vcolinfosort@2@V?$allocator@PAUcolinfo_t@xlslib_core@@@std@@$0A@@std@@@1@PBV?$_Tree_val@V?$_Tset_traits@PAUcolinfo_t@xlslib_core@@Vcolinfosort@2@V?$allocator@PAUcolinfo_t@xlslib_core@@@std@@$0A@@std@@@1@@Z
	??0?$_Tree_unchecked_const_iterator@V?$_Tree_val@V?$_Tset_traits@PAVrowheight_t@xlslib_core@@Vrowheightsort@2@V?$allocator@PAVrowheight_t@xlslib_core@@@std@@$0A@@std@@@std@@U_Iterator_base0@2@@std@@QAE@PAU_Node@?$_Tree_nod@V?$_Tset_traits@PAVrowheight_t@xlslib_core@@Vrowheightsort@2@V?$allocator@PAVrowheight_t@xlslib_core@@@std@@$0A@@std@@@1@PBV?$_Tree_val@V?$_Tset_traits@PAVrowheight_t@xlslib_core@@Vrowheightsort@2@V?$allocator@PAVrowheight_t@xlslib_core@@@std@@$0A@@std@@@1@@Z
	??0?$_List_unchecked_const_iterator@V?$_List_val@PAV?$basic_string@DU?$char_traits@D@std@@V?$allocator@D@2@@std@@V?$allocator@PAV?$basic_string@DU?$char_traits@D@std@@V?$allocator@D@2@@std@@@2@@std@@U_Iterator_base0@2@@std@@QAE@PAU_Node@?$_List_nod@PAV?$basic_string@DU?$char_traits@D@std@@V?$allocator@D@2@@std@@V?$allocator@PAV?$basic_string@DU?$char_traits@D@std@@V?$allocator@D@2@@std@@@2@@1@PBV?$_List_val@PAV?$basic_string@DU?$char_traits@D@std@@V?$allocator@D@2@@std@@V?$allocator@PAV?$basic_string@DU?$char_traits@D@std@@V?$allocator@D@2@@std@@@2@@1@@Z
	?borderstyle@range@xlslib_core@@UAEXW4border_side_t@2@W4border_style_t@2@@Z
	??0?$_Tree_unchecked_const_iterator@V?$_Tree_val@V?$_Tset_traits@PAVHPSFitem@xlslib_core@@Vinsertsort2@2@V?$allocator@PAVHPSFitem@xlslib_core@@@std@@$0A@@std@@@std@@U_Iterator_base0@2@@std@@QAE@PAU_Node@?$_Tree_nod@V?$_Tset_traits@PAVHPSFitem@xlslib_core@@Vinsertsort2@2@V?$allocator@PAVHPSFitem@xlslib_core@@@std@@$0A@@std@@@1@PBV?$_Tree_val@V?$_Tset_traits@PAVHPSFitem@xlslib_core@@Vinsertsort2@2@V?$allocator@PAVHPSFitem@xlslib_core@@@std@@$0A@@std@@@1@@Z
	??0?$_String_const_iterator@GU?$char_traits@G@std@@V?$allocator@G@2@@std@@QAE@PBGPBU_Container_base0@1@@Z
	??1COleFileSystem@xlslib_core@@UAE@XZ
	??0?$_List_const_iterator@V?$_List_val@PAV?$basic_string@DU?$char_traits@D@std@@V?$allocator@D@2@@std@@V?$allocator@PAV?$basic_string@DU?$char_traits@D@std@@V?$allocator@D@2@@std@@@2@@std@@@std@@QAE@PAU_Node@?$_List_nod@PAV?$basic_string@DU?$char_traits@D@std@@V?$allocator@D@2@@std@@V?$allocator@PAV?$basic_string@DU?$char_traits@D@std@@V?$allocator@D@2@@std@@@2@@1@PBV?$_List_val@PAV?$basic_string@DU?$char_traits@D@std@@V?$allocator@D@2@@std@@V?$allocator@PAV?$basic_string@DU?$char_traits@D@std@@V?$allocator@D@2@@std@@@2@@1@@Z
	??0?$_String_iterator@GU?$char_traits@G@std@@V?$allocator@G@2@@std@@QAE@PAGPBU_Container_base0@1@@Z
	??0?$_Tree_unchecked_const_iterator@V?$_Tree_val@V?$_Tset_traits@PAUcolinfo_t@xlslib_core@@Vcolinfosort@2@V?$allocator@PAUcolinfo_t@xlslib_core@@@std@@$0A@@std@@@std@@U_Iterator_base0@2@@std@@QAE@PAU_Node@?$_Tree_nod@V?$_Tset_traits@PAUcolinfo_t@xlslib_core@@Vcolinfosort@2@V?$allocator@PAUcolinfo_t@xlslib_core@@@std@@$0A@@std@@@1@PBV?$_Tree_val@V?$_Tset_traits@PAUcolinfo_t@xlslib_core@@Vcolinfosort@2@V?$allocator@PAUcolinfo_t@xlslib_core@@@std@@$0A@@std@@@1@@Z
	??0?$_Tree_const_iterator@V?$_Tree_val@V?$_Tset_traits@PAVcell_t@xlslib_core@@Vinsertsort@2@V?$allocator@PAVcell_t@xlslib_core@@@std@@$0A@@std@@@std@@@std@@QAE@PAU_Node@?$_Tree_nod@V?$_Tset_traits@PAVcell_t@xlslib_core@@Vinsertsort@2@V?$allocator@PAVcell_t@xlslib_core@@@std@@$0A@@std@@@1@PBV?$_Tree_val@V?$_Tset_traits@PAVcell_t@xlslib_core@@Vinsertsort@2@V?$allocator@PAVcell_t@xlslib_core@@@std@@$0A@@std@@@1@@Z
	?_Color@?$_Tree_val@V?$_Tset_traits@PAVrowheight_t@xlslib_core@@Vrowheightsort@2@V?$allocator@PAVrowheight_t@xlslib_core@@@std@@$0A@@std@@@std@@SAAADPAU_Node@?$_Tree_nod@V?$_Tset_traits@PAVrowheight_t@xlslib_core@@Vrowheightsort@2@V?$allocator@PAVrowheight_t@xlslib_core@@@std@@$0A@@std@@@2@@Z
	?_Color@?$_Tree_val@V?$_Tset_traits@PAVcell_t@xlslib_core@@Vinsertsort@2@V?$allocator@PAVcell_t@xlslib_core@@@std@@$0A@@std@@@std@@SAAADPAU_Node@?$_Tree_nod@V?$_Tset_traits@PAVcell_t@xlslib_core@@Vinsertsort@2@V?$allocator@PAVcell_t@xlslib_core@@@std@@$0A@@std@@@2@@Z
	?_Color@?$_Tree_val@V?$_Tset_traits@PAUcolinfo_t@xlslib_core@@Vcolinfosort@2@V?$allocator@PAUcolinfo_t@xlslib_core@@@std@@$0A@@std@@@std@@SAAADPAU_Node@?$_Tree_nod@V?$_Tset_traits@PAUcolinfo_t@xlslib_core@@Vcolinfosort@2@V?$allocator@PAUcolinfo_t@xlslib_core@@@std@@$0A@@std@@@2@@Z
	??$insert@AAPAVHPSFitem@xlslib_core@@@?$_Tree@V?$_Tset_traits@PAVHPSFitem@xlslib_core@@Vinsertsort2@2@V?$allocator@PAVHPSFitem@xlslib_core@@@std@@$0A@@std@@@std@@QAE?AU?$pair@V?$_Tree_const_iterator@V?$_Tree_val@V?$_Tset_traits@PAVHPSFitem@xlslib_core@@Vinsertsort2@2@V?$allocator@PAVHPSFitem@xlslib_core@@@std@@$0A@@std@@@std@@@std@@_N@1@AAPAVHPSFitem@xlslib_core@@@Z
	??$swap@D@std@@YAXAAD0@Z
	??$_Allocate@U_Node@?$_Tree_nod@V?$_Tset_traits@PAVrowheight_t@xlslib_core@@Vrowheightsort@2@V?$allocator@PAVrowheight_t@xlslib_core@@@std@@$0A@@std@@@std@@@std@@YAPAU_Node@?$_Tree_nod@V?$_Tset_traits@PAVrowheight_t@xlslib_core@@Vrowheightsort@2@V?$allocator@PAVrowheight_t@xlslib_core@@@std@@$0A@@std@@@0@IPAU120@@Z
	??$_Allocate@U_Node@?$_Tree_nod@V?$_Tset_traits@PAVcell_t@xlslib_core@@Vinsertsort@2@V?$allocator@PAVcell_t@xlslib_core@@@std@@$0A@@std@@@std@@@std@@YAPAU_Node@?$_Tree_nod@V?$_Tset_traits@PAVcell_t@xlslib_core@@Vinsertsort@2@V?$allocator@PAVcell_t@xlslib_core@@@std@@$0A@@std@@@0@IPAU120@@Z
	??1?$vector@PAVformat_t@xlslib_core@@V?$allocator@PAVformat_t@xlslib_core@@@std@@@std@@QAE@XZ
	??$_Allocate@U_Node@?$_Tree_nod@V?$_Tset_traits@PAUcolinfo_t@xlslib_core@@Vcolinfosort@2@V?$allocator@PAUcolinfo_t@xlslib_core@@@std@@$0A@@std@@@std@@@std@@YAPAU_Node@?$_Tree_nod@V?$_Tset_traits@PAUcolinfo_t@xlslib_core@@Vcolinfosort@2@V?$allocator@PAUcolinfo_t@xlslib_core@@@std@@$0A@@std@@@0@IPAU120@@Z
	??$_Allocate@U_Node@?$_Tree_nod@V?$_Tset_traits@PAVHPSFitem@xlslib_core@@Vinsertsort2@2@V?$allocator@PAVHPSFitem@xlslib_core@@@std@@$0A@@std@@@std@@@std@@YAPAU_Node@?$_Tree_nod@V?$_Tset_traits@PAVHPSFitem@xlslib_core@@Vinsertsort2@2@V?$allocator@PAVHPSFitem@xlslib_core@@@std@@$0A@@std@@@0@IPAU120@@Z
	?_Linsert@?$_Tree@V?$_Tset_traits@PAVHPSFitem@xlslib_core@@Vinsertsort2@2@V?$allocator@PAVHPSFitem@xlslib_core@@@std@@$0A@@std@@@std@@QAE?AU?$pair@V?$_Tree_const_iterator@V?$_Tree_val@V?$_Tset_traits@PAVHPSFitem@xlslib_core@@Vinsertsort2@2@V?$allocator@PAVHPSFitem@xlslib_core@@@std@@$0A@@std@@@std@@@std@@_N@2@PAU_Node@?$_Tree_nod@V?$_Tset_traits@PAVHPSFitem@xlslib_core@@Vinsertsort2@2@V?$allocator@PAVHPSFitem@xlslib_core@@@std@@$0A@@std@@@2@_N@Z
	??F?$_Tree_const_iterator@V?$_Tree_val@V?$_Tset_traits@PAVHPSFitem@xlslib_core@@Vinsertsort2@2@V?$allocator@PAVHPSFitem@xlslib_core@@@std@@$0A@@std@@@std@@@std@@QAEAAV01@XZ
	??0?$_Pair_base@V?$_Tree_const_iterator@V?$_Tree_val@V?$_Tset_traits@PAVcell_t@xlslib_core@@Vinsertsort@2@V?$allocator@PAVcell_t@xlslib_core@@@std@@$0A@@std@@@std@@@std@@_N@std@@QAE@$$QAV?$_Tree_const_iterator@V?$_Tree_val@V?$_Tset_traits@PAVcell_t@xlslib_core@@Vinsertsort@2@V?$allocator@PAVcell_t@xlslib_core@@@std@@$0A@@std@@@std@@@1@$$QA_N@Z
	??F?$_Tree_const_iterator@V?$_Tree_val@V?$_Tset_traits@PAVcell_t@xlslib_core@@Vinsertsort@2@V?$allocator@PAVcell_t@xlslib_core@@@std@@$0A@@std@@@std@@@std@@QAEAAV01@XZ
	??F?$_Tree_const_iterator@V?$_Tree_val@V?$_Tset_traits@PAUcolinfo_t@xlslib_core@@Vcolinfosort@2@V?$allocator@PAUcolinfo_t@xlslib_core@@@std@@$0A@@std@@@std@@@std@@QAEAAV01@XZ
	??F?$_Tree_const_iterator@V?$_Tree_val@V?$_Tset_traits@PAVrowheight_t@xlslib_core@@Vrowheightsort@2@V?$allocator@PAVrowheight_t@xlslib_core@@@std@@$0A@@std@@@std@@@std@@QAEAAV01@XZ
	?deallocate@?$allocator@PAVformat_t@xlslib_core@@@std@@QAEXPAPAVformat_t@xlslib_core@@I@Z
	??$_Buynode@AAPAVHPSFitem@xlslib_core@@@?$_Tree_val@V?$_Tset_traits@PAVHPSFitem@xlslib_core@@Vinsertsort2@2@V?$allocator@PAVHPSFitem@xlslib_core@@@std@@$0A@@std@@@std@@QAEPAU_Node@?$_Tree_nod@V?$_Tset_traits@PAVHPSFitem@xlslib_core@@Vinsertsort2@2@V?$allocator@PAVHPSFitem@xlslib_core@@@std@@$0A@@std@@@1@AAPAVHPSFitem@xlslib_core@@@Z
	??$_Buynode@AAPAUcolinfo_t@xlslib_core@@@?$_Tree_val@V?$_Tset_traits@PAUcolinfo_t@xlslib_core@@Vcolinfosort@2@V?$allocator@PAUcolinfo_t@xlslib_core@@@std@@$0A@@std@@@std@@QAEPAU_Node@?$_Tree_nod@V?$_Tset_traits@PAUcolinfo_t@xlslib_core@@Vcolinfosort@2@V?$allocator@PAUcolinfo_t@xlslib_core@@@std@@$0A@@std@@@1@AAPAUcolinfo_t@xlslib_core@@@Z
	??0?$_Vector_val@PAVrange@xlslib_core@@V?$allocator@PAVrange@xlslib_core@@@std@@@std@@QAE@V?$allocator@PAVrange@xlslib_core@@@1@@Z
	??$_Buynode@AAPAVrowheight_t@xlslib_core@@@?$_Tree_val@V?$_Tset_traits@PAVrowheight_t@xlslib_core@@Vrowheightsort@2@V?$allocator@PAVrowheight_t@xlslib_core@@@std@@$0A@@std@@@std@@QAEPAU_Node@?$_Tree_nod@V?$_Tset_traits@PAVrowheight_t@xlslib_core@@Vrowheightsort@2@V?$allocator@PAVrowheight_t@xlslib_core@@@std@@$0A@@std@@@1@AAPAVrowheight_t@xlslib_core@@@Z
	??$_Distance2@V?$_Tree_const_iterator@V?$_Tree_val@V?$_Tset_traits@PAVcell_t@xlslib_core@@Vinsertsort@2@V?$allocator@PAVcell_t@xlslib_core@@@std@@$0A@@std@@@std@@@std@@I@std@@YAXV?$_Tree_const_iterator@V?$_Tree_val@V?$_Tset_traits@PAVcell_t@xlslib_core@@Vinsertsort@2@V?$allocator@PAVcell_t@xlslib_core@@@std@@$0A@@std@@@std@@@0@0AAIUbidirectional_iterator_tag@0@@Z
	??$_Distance2@V?$_Tree_const_iterator@V?$_Tree_val@V?$_Tset_traits@PAVHPSFitem@xlslib_core@@Vinsertsort2@2@V?$allocator@PAVHPSFitem@xlslib_core@@@std@@$0A@@std@@@std@@@std@@I@std@@YAXV?$_Tree_const_iterator@V?$_Tree_val@V?$_Tset_traits@PAVHPSFitem@xlslib_core@@Vinsertsort2@2@V?$allocator@PAVHPSFitem@xlslib_core@@@std@@$0A@@std@@@std@@@0@0AAIUbidirectional_iterator_tag@0@@Z
	??0CIndex@xlslib_core@@IAE@AAVCDataStorage@1@II@Z
	??E?$_Vector_iterator@V?$_Vector_val@PAVxf_t@xlslib_core@@V?$allocator@PAVxf_t@xlslib_core@@@std@@@std@@@std@@QAE?AV01@H@Z
	?AddDBCellOffset@CIndex@xlslib_core@@QAEDI@Z
	?Usage@format_t@xlslib_core@@QBEIXZ
	?SetRows@CIndex@xlslib_core@@QAEXII@Z
	?GetFirstRow@CIndex@xlslib_core@@QAEIXZ
	?GetLastRow@CIndex@xlslib_core@@QAEIXZ
	??0label_t@xlslib_core@@AAE@AAVCGlobalRecords@1@IIABV?$basic_string@GU?$char_traits@G@std@@V?$allocator@G@2@@std@@PAVxf_t@1@@Z
	??1label_t@xlslib_core@@EAE@XZ
	?number@worksheet@xlslib_core@@QAEPAVcell_t@2@IIHPAVxf_t@2@@Z
	?GetSize@label_t@xlslib_core@@UBEIXZ
	?GetData@label_t@xlslib_core@@UBEPAVCUnit@2@AAVCDataStorage@2@@Z
	??0CLabel@xlslib_core@@IAE@AAVCDataStorage@1@ABVlabel_t@1@@Z
	??0CMergedCells@xlslib_core@@IAE@AAVCDataStorage@1@@Z
	?AddRange@CMergedCells@xlslib_core@@QAEXPAVrange_t@2@@Z
	??0note_t@xlslib_core@@AAE@AAVCGlobalRecords@1@IIABV?$basic_string@DU?$char_traits@D@std@@V?$allocator@D@2@@std@@1PAVxf_t@1@@Z
	??0?$_Tree@V?$_Tset_traits@PAVHPSFitem@xlslib_core@@Vinsertsort2@2@V?$allocator@PAVHPSFitem@xlslib_core@@@std@@$0A@@std@@@std@@QAE@ABVinsertsort2@xlslib_core@@ABV?$allocator@PAVHPSFitem@xlslib_core@@@1@@Z
	??0note_t@xlslib_core@@AAE@AAVCGlobalRecords@1@IIABV?$basic_string@_WU?$char_traits@_W@std@@V?$allocator@_W@2@@std@@1PAVxf_t@1@@Z
	?WriteSigned32@CBinFile@xlslib_core@@QAEHH@Z
	??1note_t@xlslib_core@@EAE@XZ
	??0CNote@xlslib_core@@IAE@AAVCDataStorage@1@ABVnote_t@1@@Z
	?mk_obj_Record@CNote@xlslib_core@@IAEXPBVnote_t@2@@Z
	?mk_obj_CMO_SubRecord@CNote@xlslib_core@@IAEXPBVnote_t@2@@Z
	?mk_obj_END_SubRecord@CNote@xlslib_core@@IAEXPBVnote_t@2@@Z
	?GetSize@number_t@xlslib_core@@EBEIXZ
	?GetIsDouble@number_t@xlslib_core@@QBE_NXZ
	?GetErr@err_t@xlslib_core@@QBEEXZ
	?GetDouble@number_t@xlslib_core@@QBENXZ
	??$construct@AAPAVxf_t@xlslib_core@@@?$allocator@PAVxf_t@xlslib_core@@@std@@QAEXPAPAVxf_t@xlslib_core@@AAPAV23@@Z
	?GetInt@number_t@xlslib_core@@QBEHXZ
	??0number_t@xlslib_core@@AAE@AAVCGlobalRecords@1@IINPAVxf_t@1@@Z
	??0number_t@xlslib_core@@AAE@AAVCGlobalRecords@1@IIIPAVxf_t@1@@Z
	?push_back@?$vector@PAUDataValidation@xlslib_core@@V?$allocator@PAUDataValidation@xlslib_core@@@std@@@std@@QAEXABQAUDataValidation@xlslib_core@@@Z
	?GetData@number_t@xlslib_core@@EBEPAVCUnit@2@AAVCDataStorage@2@@Z
	??0CNumber@xlslib_core@@IAE@AAVCDataStorage@1@ABVnumber_t@1@@Z
	??0font_i@xlslib_core@@QAE@XZ
	??0?$set@PAVrowheight_t@xlslib_core@@Vrowheightsort@2@V?$allocator@PAVrowheight_t@xlslib_core@@@std@@@std@@QAE@XZ
	??1font_i@xlslib_core@@UAE@XZ
	??RxfSorter@xlslib_core@@QBE_NABU?$pair@PAVxf_t@xlslib_core@@UborderedXft@2@@std@@0@Z
	??0range@xlslib_core@@QAE@IIIIPAVworksheet@1@@Z
	??1range@xlslib_core@@UAE@XZ
	?cellcolor@range@xlslib_core@@QAEXW4color_name_t@2@@Z
	??1?$set@U?$pair@PAVxf_t@xlslib_core@@UborderedXft@2@@std@@VxfSorter@xlslib_core@@V?$allocator@U?$pair@PAVxf_t@xlslib_core@@UborderedXft@2@@std@@@2@@std@@QAE@XZ
	??1?$_Tree@V?$_Tset_traits@U?$pair@PAVxf_t@xlslib_core@@UborderedXft@2@@std@@VxfSorter@xlslib_core@@V?$allocator@U?$pair@PAVxf_t@xlslib_core@@UborderedXft@2@@std@@@2@$0A@@std@@@std@@QAE@XZ
	?boxer@range@xlslib_core@@QAEXW4border_style_t@2@W4fill_option_t@2@W4color_name_t@2@22@Z
	?font@range@xlslib_core@@UAEXPAVfont_t@2@@Z
	?fillbgcolor@range@xlslib_core@@UAEXE@Z
	?format@range@xlslib_core@@UAEXW4format_number_t@2@@Z
	?format@range@xlslib_core@@UAEXPAVformat_t@2@@Z
	?begin@?$vector@Urowblocksize_t@xlslib_core@@V?$allocator@Urowblocksize_t@xlslib_core@@@std@@@std@@QAE?AV?$_Vector_iterator@V?$_Vector_val@Urowblocksize_t@xlslib_core@@V?$allocator@Urowblocksize_t@xlslib_core@@@std@@@std@@@2@XZ
	?bordercolor@range@xlslib_core@@UAEXW4border_side_t@2@W4color_name_t@2@@Z
	?bordercolor@range@xlslib_core@@UAEXW4border_side_t@2@E@Z
	?deallocate@?$allocator@U_Node@?$_Tree_nod@V?$_Tset_traits@PAVHPSFitem@xlslib_core@@Vinsertsort2@2@V?$allocator@PAVHPSFitem@xlslib_core@@@std@@$0A@@std@@@std@@@std@@QAEXPAU_Node@?$_Tree_nod@V?$_Tset_traits@PAVHPSFitem@xlslib_core@@Vinsertsort2@2@V?$allocator@PAVHPSFitem@xlslib_core@@@std@@$0A@@std@@@2@I@Z
	?end@?$list@PAV?$basic_string@DU?$char_traits@D@std@@V?$allocator@D@2@@std@@V?$allocator@PAV?$basic_string@DU?$char_traits@D@std@@V?$allocator@D@2@@std@@@2@@std@@QAE?AV?$_List_iterator@V?$_List_val@PAV?$basic_string@DU?$char_traits@D@std@@V?$allocator@D@2@@std@@V?$allocator@PAV?$basic_string@DU?$char_traits@D@std@@V?$allocator@D@2@@std@@@2@@std@@@2@XZ
	?halign@range@xlslib_core@@UAEXW4halign_option_t@2@@Z
	?valign@range@xlslib_core@@UAEXW4valign_option_t@2@@Z
	?formula@worksheet@xlslib_core@@QAEPAVcell_t@2@IIPAVexpression_node_t@2@_NPAVxf_t@2@@Z
	?orientation@range@xlslib_core@@UAEXW4txtori_option_t@2@@Z
	?fillfgcolor@range@xlslib_core@@UAEXW4color_name_t@2@@Z
	?value@?$integral_constant@_N$00@tr1@std@@2_NB
	?fillfgcolor@range@xlslib_core@@UAEXE@Z
	??F?$_Vector_const_iterator@V?$_Vector_val@PAVxf_t@xlslib_core@@V?$allocator@PAVxf_t@xlslib_core@@@std@@@std@@@std@@QAEAAV01@XZ
	?fillbgcolor@range@xlslib_core@@UAEXW4color_name_t@2@@Z
	?fillstyle@range@xlslib_core@@UAEXW4fill_option_t@2@@Z
	?locked@range@xlslib_core@@UAEX_N@Z
	?SetDataPointer@COleProp@xlslib_core@@QAEXPAVCDataStorage@2@@Z
	?hidden@range@xlslib_core@@UAEX_N@Z
	?wrap@range@xlslib_core@@UAEX_N@Z
	?fontheight@range@xlslib_core@@UAEXG@Z
	?fontbold@range@xlslib_core@@UAEXW4boldness_option_t@2@@Z
	?fontscript@range@xlslib_core@@UAEXW4script_option_t@2@@Z
	?fontcolor@range@xlslib_core@@UAEXW4color_name_t@2@@Z
	?fontcolor@range@xlslib_core@@UAEXE@Z
	??$_Cons_val@V?$allocator@PAVfont_t@xlslib_core@@@std@@PAVfont_t@xlslib_core@@AAPAV34@@std@@YAXAAV?$allocator@PAVfont_t@xlslib_core@@@0@PAPAVfont_t@xlslib_core@@AAPAV23@@Z
	?fontitalic@range@xlslib_core@@UAEX_N@Z
	?seekpos@?$basic_filebuf@DU?$char_traits@D@std@@@std@@MAE?AV?$fpos@H@2@V32@H@Z
	?fontstrikeout@range@xlslib_core@@UAEX_N@Z
	?adjustfield@?$_Iosb@H@std@@2W4_Fmtflags@12@B
	?fontshadow@range@xlslib_core@@UAEX_N@Z
	?addItem@hpsf_doc_t@xlslib_core@@QAEXG_K@Z
	?find@?$_Tree@V?$_Tset_traits@U?$pair@PAVxf_t@xlslib_core@@UborderedXft@2@@std@@VxfSorter@xlslib_core@@V?$allocator@U?$pair@PAVxf_t@xlslib_core@@UborderedXft@2@@std@@@2@$0A@@std@@@std@@QAE?AV?$_Tree_const_iterator@V?$_Tree_val@V?$_Tset_traits@U?$pair@PAVxf_t@xlslib_core@@UborderedXft@2@@std@@VxfSorter@xlslib_core@@V?$allocator@U?$pair@PAVxf_t@xlslib_core@@UborderedXft@2@@std@@@2@$0A@@std@@@std@@@2@ABU?$pair@PAVxf_t@xlslib_core@@UborderedXft@2@@2@@Z
	??0?$_Pair_base@V?$_Tree_const_iterator@V?$_Tree_val@V?$_Tset_traits@PAVcell_t@xlslib_core@@Vinsertsort@2@V?$allocator@PAVcell_t@xlslib_core@@@std@@$0A@@std@@@std@@@std@@_N@std@@QAE@XZ
	??0?$pair@V?$_Tree_const_iterator@V?$_Tree_val@V?$_Tset_traits@PAVcell_t@xlslib_core@@Vinsertsort@2@V?$allocator@PAVcell_t@xlslib_core@@@std@@$0A@@std@@@std@@@std@@_N@std@@QAE@XZ
	??0?$_Tree@V?$_Tset_traits@U?$pair@PAVxf_t@xlslib_core@@UborderedXft@2@@std@@VxfSorter@xlslib_core@@V?$allocator@U?$pair@PAVxf_t@xlslib_core@@UborderedXft@2@@std@@@2@$0A@@std@@@std@@QAE@ABVxfSorter@xlslib_core@@ABV?$allocator@U?$pair@PAVxf_t@xlslib_core@@UborderedXft@2@@std@@@1@@Z
	??1?$list@PAV?$basic_string@DU?$char_traits@D@std@@V?$allocator@D@2@@std@@V?$allocator@PAV?$basic_string@DU?$char_traits@D@std@@V?$allocator@D@2@@std@@@2@@std@@QAE@XZ
	?sync@?$basic_filebuf@DU?$char_traits@D@std@@@std@@MAEHXZ
	??0?$set@U?$pair@PAVxf_t@xlslib_core@@UborderedXft@2@@std@@VxfSorter@xlslib_core@@V?$allocator@U?$pair@PAVxf_t@xlslib_core@@UborderedXft@2@@std@@@2@@std@@QAE@XZ
	?_Tidy@?$_Tree@V?$_Tset_traits@U?$pair@PAVxf_t@xlslib_core@@UborderedXft@2@@std@@VxfSorter@xlslib_core@@V?$allocator@U?$pair@PAVxf_t@xlslib_core@@UborderedXft@2@@std@@@2@$0A@@std@@@std@@IAEXXZ
	?begin@?$_Tree@V?$_Tset_traits@PAUcolinfo_t@xlslib_core@@Vcolinfosort@2@V?$allocator@PAUcolinfo_t@xlslib_core@@@std@@$0A@@std@@@std@@QAE?AV?$_Tree_const_iterator@V?$_Tree_val@V?$_Tset_traits@PAUcolinfo_t@xlslib_core@@Vcolinfosort@2@V?$allocator@PAUcolinfo_t@xlslib_core@@@std@@$0A@@std@@@std@@@2@XZ
	?begin@?$_Tree@V?$_Tset_traits@U?$pair@PAVxf_t@xlslib_core@@UborderedXft@2@@std@@VxfSorter@xlslib_core@@V?$allocator@U?$pair@PAVxf_t@xlslib_core@@UborderedXft@2@@std@@@2@$0A@@std@@@std@@QAE?AV?$_Tree_const_iterator@V?$_Tree_val@V?$_Tset_traits@U?$pair@PAVxf_t@xlslib_core@@UborderedXft@2@@std@@VxfSorter@xlslib_core@@V?$allocator@U?$pair@PAVxf_t@xlslib_core@@UborderedXft@2@@std@@@2@$0A@@std@@@std@@@2@XZ
	?begin@?$_Tree@V?$_Tset_traits@PAVHPSFitem@xlslib_core@@Vinsertsort2@2@V?$allocator@PAVHPSFitem@xlslib_core@@@std@@$0A@@std@@@std@@QAE?AV?$_Tree_const_iterator@V?$_Tree_val@V?$_Tset_traits@PAVHPSFitem@xlslib_core@@Vinsertsort2@2@V?$allocator@PAVHPSFitem@xlslib_core@@@std@@$0A@@std@@@std@@@2@XZ
	?begin@?$vector@PAUstyle_t@xlslib_core@@V?$allocator@PAUstyle_t@xlslib_core@@@std@@@std@@QAE?AV?$_Vector_iterator@V?$_Vector_val@PAUstyle_t@xlslib_core@@V?$allocator@PAUstyle_t@xlslib_core@@@std@@@std@@@2@XZ
	?begin@?$_Tree@V?$_Tset_traits@PAVHPSFitem@xlslib_core@@Vinsertsort2@2@V?$allocator@PAVHPSFitem@xlslib_core@@@std@@$0A@@std@@@std@@QBE?AV?$_Tree_const_iterator@V?$_Tree_val@V?$_Tset_traits@PAVHPSFitem@xlslib_core@@Vinsertsort2@2@V?$allocator@PAVHPSFitem@xlslib_core@@@std@@$0A@@std@@@std@@@2@XZ
	?begin@?$_Tree@V?$_Tset_traits@PAVcell_t@xlslib_core@@Vinsertsort@2@V?$allocator@PAVcell_t@xlslib_core@@@std@@$0A@@std@@@std@@QAE?AV?$_Tree_const_iterator@V?$_Tree_val@V?$_Tset_traits@PAVcell_t@xlslib_core@@Vinsertsort@2@V?$allocator@PAVcell_t@xlslib_core@@@std@@$0A@@std@@@std@@@2@XZ
	?erase@?$_Tree@V?$_Tset_traits@U?$pair@PAVxf_t@xlslib_core@@UborderedXft@2@@std@@VxfSorter@xlslib_core@@V?$allocator@U?$pair@PAVxf_t@xlslib_core@@UborderedXft@2@@std@@@2@$0A@@std@@@std@@QAE?AV?$_Tree_const_iterator@V?$_Tree_val@V?$_Tset_traits@U?$pair@PAVxf_t@xlslib_core@@UborderedXft@2@@std@@VxfSorter@xlslib_core@@V?$allocator@U?$pair@PAVxf_t@xlslib_core@@UborderedXft@2@@std@@@2@$0A@@std@@@std@@@2@V32@0@Z
	?_Lbound@?$_Tree@V?$_Tset_traits@U?$pair@PAVxf_t@xlslib_core@@UborderedXft@2@@std@@VxfSorter@xlslib_core@@V?$allocator@U?$pair@PAVxf_t@xlslib_core@@UborderedXft@2@@std@@@2@$0A@@std@@@std@@IAEPAU_Node@?$_Tree_nod@V?$_Tset_traits@U?$pair@PAVxf_t@xlslib_core@@UborderedXft@2@@std@@VxfSorter@xlslib_core@@V?$allocator@U?$pair@PAVxf_t@xlslib_core@@UborderedXft@2@@std@@@2@$0A@@std@@@2@ABU?$pair@PAVxf_t@xlslib_core@@UborderedXft@2@@2@@Z
	??0?$_Tree_val@V?$_Tset_traits@U?$pair@PAVxf_t@xlslib_core@@UborderedXft@2@@std@@VxfSorter@xlslib_core@@V?$allocator@U?$pair@PAVxf_t@xlslib_core@@UborderedXft@2@@std@@@2@$0A@@std@@@std@@QAE@ABVxfSorter@xlslib_core@@V?$allocator@U?$pair@PAVxf_t@xlslib_core@@UborderedXft@2@@std@@@1@@Z
	?size@?$vector@PAVrange_t@xlslib_core@@V?$allocator@PAVrange_t@xlslib_core@@@std@@@std@@QBEIXZ
	?clear@?$_Tree@V?$_Tset_traits@U?$pair@PAVxf_t@xlslib_core@@UborderedXft@2@@std@@VxfSorter@xlslib_core@@V?$allocator@U?$pair@PAVxf_t@xlslib_core@@UborderedXft@2@@std@@@2@$0A@@std@@@std@@QAEXXZ
	?_Lrotate@?$_Tree@V?$_Tset_traits@U?$pair@PAVxf_t@xlslib_core@@UborderedXft@2@@std@@VxfSorter@xlslib_core@@V?$allocator@U?$pair@PAVxf_t@xlslib_core@@UborderedXft@2@@std@@@2@$0A@@std@@@std@@IAEXPAU_Node@?$_Tree_nod@V?$_Tset_traits@U?$pair@PAVxf_t@xlslib_core@@UborderedXft@2@@std@@VxfSorter@xlslib_core@@V?$allocator@U?$pair@PAVxf_t@xlslib_core@@UborderedXft@2@@std@@@2@$0A@@std@@@2@@Z
	?_Rmost@?$_Tree@V?$_Tset_traits@PAVHPSFitem@xlslib_core@@Vinsertsort2@2@V?$allocator@PAVHPSFitem@xlslib_core@@@std@@$0A@@std@@@std@@IBEAAPAU_Node@?$_Tree_nod@V?$_Tset_traits@PAVHPSFitem@xlslib_core@@Vinsertsort2@2@V?$allocator@PAVHPSFitem@xlslib_core@@@std@@$0A@@std@@@2@XZ
	??9?$_Vector_const_iterator@V?$_Vector_val@Urowblocksize_t@xlslib_core@@V?$allocator@Urowblocksize_t@xlslib_core@@@std@@@std@@@std@@QBE_NABV01@@Z
	?_Rmost@?$_Tree@V?$_Tset_traits@PAVrowheight_t@xlslib_core@@Vrowheightsort@2@V?$allocator@PAVrowheight_t@xlslib_core@@@std@@$0A@@std@@@std@@IBEAAPAU_Node@?$_Tree_nod@V?$_Tset_traits@PAVrowheight_t@xlslib_core@@Vrowheightsort@2@V?$allocator@PAVrowheight_t@xlslib_core@@@std@@$0A@@std@@@2@XZ
	??$_Construct@PAVxf_t@xlslib_core@@ABQAV12@@std@@YAXPAPAVxf_t@xlslib_core@@ABQAV12@@Z
	??1CDimension@xlslib_core@@EAE@XZ
	?_Max@?$_Tree_val@V?$_Tset_traits@U?$pair@PAVxf_t@xlslib_core@@UborderedXft@2@@std@@VxfSorter@xlslib_core@@V?$allocator@U?$pair@PAVxf_t@xlslib_core@@UborderedXft@2@@std@@@2@$0A@@std@@@std@@SAPAU_Node@?$_Tree_nod@V?$_Tset_traits@U?$pair@PAVxf_t@xlslib_core@@UborderedXft@2@@std@@VxfSorter@xlslib_core@@V?$allocator@U?$pair@PAVxf_t@xlslib_core@@UborderedXft@2@@std@@@2@$0A@@std@@@2@PAU342@@Z
	?_Min@?$_Tree_val@V?$_Tset_traits@U?$pair@PAVxf_t@xlslib_core@@UborderedXft@2@@std@@VxfSorter@xlslib_core@@V?$allocator@U?$pair@PAVxf_t@xlslib_core@@UborderedXft@2@@std@@@2@$0A@@std@@@std@@SAPAU_Node@?$_Tree_nod@V?$_Tset_traits@U?$pair@PAVxf_t@xlslib_core@@UborderedXft@2@@std@@VxfSorter@xlslib_core@@V?$allocator@U?$pair@PAVxf_t@xlslib_core@@UborderedXft@2@@std@@@2@$0A@@std@@@2@PAU342@@Z
	?seekpos@?$fpos@H@std@@QBE_JXZ
	??E?$_Tree_const_iterator@V?$_Tree_val@V?$_Tset_traits@U?$pair@PAVxf_t@xlslib_core@@UborderedXft@2@@std@@VxfSorter@xlslib_core@@V?$allocator@U?$pair@PAVxf_t@xlslib_core@@UborderedXft@2@@std@@@2@$0A@@std@@@std@@@std@@QAEAAV01@XZ
	??E?$_Tree_unchecked_const_iterator@V?$_Tree_val@V?$_Tset_traits@U?$pair@PAVxf_t@xlslib_core@@UborderedXft@2@@std@@VxfSorter@xlslib_core@@V?$allocator@U?$pair@PAVxf_t@xlslib_core@@UborderedXft@2@@std@@@2@$0A@@std@@@std@@U_Iterator_base0@2@@std@@QAEAAV01@XZ
	??$insert@U?$pair@PAVxf_t@xlslib_core@@UborderedXft@2@@std@@@?$_Tree@V?$_Tset_traits@U?$pair@PAVxf_t@xlslib_core@@UborderedXft@2@@std@@VxfSorter@xlslib_core@@V?$allocator@U?$pair@PAVxf_t@xlslib_core@@UborderedXft@2@@std@@@2@$0A@@std@@@std@@QAE?AU?$pair@V?$_Tree_const_iterator@V?$_Tree_val@V?$_Tset_traits@U?$pair@PAVxf_t@xlslib_core@@UborderedXft@2@@std@@VxfSorter@xlslib_core@@V?$allocator@U?$pair@PAVxf_t@xlslib_core@@UborderedXft@2@@std@@@2@$0A@@std@@@std@@@std@@_N@1@$$QAU?$pair@PAVxf_t@xlslib_core@@UborderedXft@2@@1@@Z
	??$insert@AAU?$pair@PAVxf_t@xlslib_core@@UborderedXft@2@@std@@@?$_Tree@V?$_Tset_traits@U?$pair@PAVxf_t@xlslib_core@@UborderedXft@2@@std@@VxfSorter@xlslib_core@@V?$allocator@U?$pair@PAVxf_t@xlslib_core@@UborderedXft@2@@std@@@2@$0A@@std@@@std@@QAE?AU?$pair@V?$_Tree_const_iterator@V?$_Tree_val@V?$_Tset_traits@U?$pair@PAVxf_t@xlslib_core@@UborderedXft@2@@std@@VxfSorter@xlslib_core@@V?$allocator@U?$pair@PAVxf_t@xlslib_core@@UborderedXft@2@@std@@@2@$0A@@std@@@std@@@std@@_N@1@AAU?$pair@PAVxf_t@xlslib_core@@UborderedXft@2@@1@@Z
	?append@?$basic_string@DU?$char_traits@D@std@@V?$allocator@D@2@@std@@QAEAAV12@ABV12@II@Z
	?_Linsert@?$_Tree@V?$_Tset_traits@U?$pair@PAVxf_t@xlslib_core@@UborderedXft@2@@std@@VxfSorter@xlslib_core@@V?$allocator@U?$pair@PAVxf_t@xlslib_core@@UborderedXft@2@@std@@@2@$0A@@std@@@std@@QAE?AU?$pair@V?$_Tree_const_iterator@V?$_Tree_val@V?$_Tset_traits@U?$pair@PAVxf_t@xlslib_core@@UborderedXft@2@@std@@VxfSorter@xlslib_core@@V?$allocator@U?$pair@PAVxf_t@xlslib_core@@UborderedXft@2@@std@@@2@$0A@@std@@@std@@@std@@_N@2@PAU_Node@?$_Tree_nod@V?$_Tset_traits@U?$pair@PAVxf_t@xlslib_core@@UborderedXft@2@@std@@VxfSorter@xlslib_core@@V?$allocator@U?$pair@PAVxf_t@xlslib_core@@UborderedXft@2@@std@@@2@$0A@@std@@@2@_N@Z
	??1CMergedCells@xlslib_core@@EAE@XZ
	?max_size@?$allocator@U?$pair@PAVxf_t@xlslib_core@@UborderedXft@2@@std@@@std@@QBEIXZ
	?max_size@?$_Tree@V?$_Tset_traits@U?$pair@PAVxf_t@xlslib_core@@UborderedXft@2@@std@@VxfSorter@xlslib_core@@V?$allocator@U?$pair@PAVxf_t@xlslib_core@@UborderedXft@2@@std@@@2@$0A@@std@@@std@@QBEIXZ
	??F?$_Tree_unchecked_const_iterator@V?$_Tree_val@V?$_Tset_traits@U?$pair@PAVxf_t@xlslib_core@@UborderedXft@2@@std@@VxfSorter@xlslib_core@@V?$allocator@U?$pair@PAVxf_t@xlslib_core@@UborderedXft@2@@std@@@2@$0A@@std@@@std@@U_Iterator_base0@2@@std@@QAEAAV01@XZ
	??$_Buynode@U?$pair@PAVxf_t@xlslib_core@@UborderedXft@2@@std@@@?$_Tree_val@V?$_Tset_traits@U?$pair@PAVxf_t@xlslib_core@@UborderedXft@2@@std@@VxfSorter@xlslib_core@@V?$allocator@U?$pair@PAVxf_t@xlslib_core@@UborderedXft@2@@std@@@2@$0A@@std@@@std@@QAEPAU_Node@?$_Tree_nod@V?$_Tset_traits@U?$pair@PAVxf_t@xlslib_core@@UborderedXft@2@@std@@VxfSorter@xlslib_core@@V?$allocator@U?$pair@PAVxf_t@xlslib_core@@UborderedXft@2@@std@@@2@$0A@@std@@@1@$$QAU?$pair@PAVxf_t@xlslib_core@@UborderedXft@2@@1@@Z
	??$construct@AAU?$pair@PAVxf_t@xlslib_core@@UborderedXft@2@@std@@@?$allocator@U?$pair@PAVxf_t@xlslib_core@@UborderedXft@2@@std@@@std@@QAEXPAU?$pair@PAVxf_t@xlslib_core@@UborderedXft@2@@1@AAU21@@Z
	??$_Cons_val@V?$allocator@U?$pair@PAVxf_t@xlslib_core@@UborderedXft@2@@std@@@std@@U?$pair@PAVxf_t@xlslib_core@@UborderedXft@2@@2@U32@@std@@YAXAAV?$allocator@U?$pair@PAVxf_t@xlslib_core@@UborderedXft@2@@std@@@0@PAU?$pair@PAVxf_t@xlslib_core@@UborderedXft@2@@0@$$QAU20@@Z
	?SetSize@COleProp@xlslib_core@@QAEHI@Z
	?construct@?$allocator@PAVformat_t@xlslib_core@@@std@@QAEXPAPAVformat_t@xlslib_core@@ABQAV34@@Z
	??$?0AAV?$_Tree_const_iterator@V?$_Tree_val@V?$_Tset_traits@PAVHPSFitem@xlslib_core@@Vinsertsort2@2@V?$allocator@PAVHPSFitem@xlslib_core@@@std@@$0A@@std@@@std@@@std@@_N@?$pair@V?$_Tree_const_iterator@V?$_Tree_val@V?$_Tset_traits@PAVHPSFitem@xlslib_core@@Vinsertsort2@2@V?$allocator@PAVHPSFitem@xlslib_core@@@std@@$0A@@std@@@std@@@std@@_N@std@@QAE@AAV?$_Tree_const_iterator@V?$_Tree_val@V?$_Tset_traits@PAVHPSFitem@xlslib_core@@Vinsertsort2@2@V?$allocator@PAVHPSFitem@xlslib_core@@@std@@$0A@@std@@@std@@@1@$$QA_N@Z
	??0?$pair@V?$_Tree_const_iterator@V?$_Tree_val@V?$_Tset_traits@PAVHPSFitem@xlslib_core@@Vinsertsort2@2@V?$allocator@PAVHPSFitem@xlslib_core@@@std@@$0A@@std@@@std@@@std@@_N@std@@QAE@$$QAV?$_Tree_const_iterator@V?$_Tree_val@V?$_Tset_traits@PAVHPSFitem@xlslib_core@@Vinsertsort2@2@V?$allocator@PAVHPSFitem@xlslib_core@@@std@@$0A@@std@@@std@@@1@$$QA_N@Z
	?Inflate@CUnit@xlslib_core@@QAEDI@Z
	??$?0AAV?$_Tree_const_iterator@V?$_Tree_val@V?$_Tset_traits@PAVrowheight_t@xlslib_core@@Vrowheightsort@2@V?$allocator@PAVrowheight_t@xlslib_core@@@std@@$0A@@std@@@std@@@std@@_N@?$pair@V?$_Tree_const_iterator@V?$_Tree_val@V?$_Tset_traits@PAVrowheight_t@xlslib_core@@Vrowheightsort@2@V?$allocator@PAVrowheight_t@xlslib_core@@@std@@$0A@@std@@@std@@@std@@_N@std@@QAE@AAV?$_Tree_const_iterator@V?$_Tree_val@V?$_Tset_traits@PAVrowheight_t@xlslib_core@@Vrowheightsort@2@V?$allocator@PAVrowheight_t@xlslib_core@@@std@@$0A@@std@@@std@@@1@$$QA_N@Z
	??0?$pair@V?$_Tree_const_iterator@V?$_Tree_val@V?$_Tset_traits@PAUcolinfo_t@xlslib_core@@Vcolinfosort@2@V?$allocator@PAUcolinfo_t@xlslib_core@@@std@@$0A@@std@@@std@@@std@@_N@std@@QAE@$$QAV?$_Tree_const_iterator@V?$_Tree_val@V?$_Tset_traits@PAUcolinfo_t@xlslib_core@@Vcolinfosort@2@V?$allocator@PAUcolinfo_t@xlslib_core@@@std@@$0A@@std@@@std@@@1@$$QA_N@Z
	??0?$_Pair_base@V?$_Tree_const_iterator@V?$_Tree_val@V?$_Tset_traits@PAUcolinfo_t@xlslib_core@@Vcolinfosort@2@V?$allocator@PAUcolinfo_t@xlslib_core@@@std@@$0A@@std@@@std@@@std@@_N@std@@QAE@$$QAV?$_Tree_const_iterator@V?$_Tree_val@V?$_Tset_traits@PAUcolinfo_t@xlslib_core@@Vcolinfosort@2@V?$allocator@PAUcolinfo_t@xlslib_core@@@std@@$0A@@std@@@std@@@1@$$QA_N@Z
	??0?$pair@V?$_Tree_const_iterator@V?$_Tree_val@V?$_Tset_traits@PAVcell_t@xlslib_core@@Vinsertsort@2@V?$allocator@PAVcell_t@xlslib_core@@@std@@$0A@@std@@@std@@@std@@_N@std@@QAE@$$QAV?$_Tree_const_iterator@V?$_Tree_val@V?$_Tset_traits@PAVcell_t@xlslib_core@@Vinsertsort@2@V?$allocator@PAVcell_t@xlslib_core@@@std@@$0A@@std@@@std@@@1@$$QA_N@Z
	??$?0AAV?$_Tree_const_iterator@V?$_Tree_val@V?$_Tset_traits@PAVHPSFitem@xlslib_core@@Vinsertsort2@2@V?$allocator@PAVHPSFitem@xlslib_core@@@std@@$0A@@std@@@std@@@std@@_N@?$_Pair_base@V?$_Tree_const_iterator@V?$_Tree_val@V?$_Tset_traits@PAVHPSFitem@xlslib_core@@Vinsertsort2@2@V?$allocator@PAVHPSFitem@xlslib_core@@@std@@$0A@@std@@@std@@@std@@_N@std@@QAE@AAV?$_Tree_const_iterator@V?$_Tree_val@V?$_Tset_traits@PAVHPSFitem@xlslib_core@@Vinsertsort2@2@V?$allocator@PAVHPSFitem@xlslib_core@@@std@@$0A@@std@@@std@@@1@$$QA_N@Z
	??$?0AAV?$_Tree_const_iterator@V?$_Tree_val@V?$_Tset_traits@PAVcell_t@xlslib_core@@Vinsertsort@2@V?$allocator@PAVcell_t@xlslib_core@@@std@@$0A@@std@@@std@@@std@@_N@?$_Pair_base@V?$_Tree_const_iterator@V?$_Tree_val@V?$_Tset_traits@PAVcell_t@xlslib_core@@Vinsertsort@2@V?$allocator@PAVcell_t@xlslib_core@@@std@@$0A@@std@@@std@@@std@@_N@std@@QAE@AAV?$_Tree_const_iterator@V?$_Tree_val@V?$_Tset_traits@PAVcell_t@xlslib_core@@Vinsertsort@2@V?$allocator@PAVcell_t@xlslib_core@@@std@@$0A@@std@@@std@@@1@$$QA_N@Z
	??$?0AAV?$_Tree_const_iterator@V?$_Tree_val@V?$_Tset_traits@PAVcell_t@xlslib_core@@Vinsertsort@2@V?$allocator@PAVcell_t@xlslib_core@@@std@@$0A@@std@@@std@@@std@@_N@?$pair@V?$_Tree_const_iterator@V?$_Tree_val@V?$_Tset_traits@PAVcell_t@xlslib_core@@Vinsertsort@2@V?$allocator@PAVcell_t@xlslib_core@@@std@@$0A@@std@@@std@@@std@@_N@std@@QAE@AAV?$_Tree_const_iterator@V?$_Tree_val@V?$_Tset_traits@PAVcell_t@xlslib_core@@Vinsertsort@2@V?$allocator@PAVcell_t@xlslib_core@@@std@@$0A@@std@@@std@@@1@$$QA_N@Z
	??0?$_Pair_base@V?$_Tree_const_iterator@V?$_Tree_val@V?$_Tset_traits@U?$pair@PAVxf_t@xlslib_core@@UborderedXft@2@@std@@VxfSorter@xlslib_core@@V?$allocator@U?$pair@PAVxf_t@xlslib_core@@UborderedXft@2@@std@@@2@$0A@@std@@@std@@@std@@_N@std@@QAE@$$QAV?$_Tree_const_iterator@V?$_Tree_val@V?$_Tset_traits@U?$pair@PAVxf_t@xlslib_core@@UborderedXft@2@@std@@VxfSorter@xlslib_core@@V?$allocator@U?$pair@PAVxf_t@xlslib_core@@UborderedXft@2@@std@@@2@$0A@@std@@@std@@@1@$$QA_N@Z
	??$?0AAV?$_Tree_const_iterator@V?$_Tree_val@V?$_Tset_traits@U?$pair@PAVxf_t@xlslib_core@@UborderedXft@2@@std@@VxfSorter@xlslib_core@@V?$allocator@U?$pair@PAVxf_t@xlslib_core@@UborderedXft@2@@std@@@2@$0A@@std@@@std@@@std@@_N@?$pair@V?$_Tree_const_iterator@V?$_Tree_val@V?$_Tset_traits@U?$pair@PAVxf_t@xlslib_core@@UborderedXft@2@@std@@VxfSorter@xlslib_core@@V?$allocator@U?$pair@PAVxf_t@xlslib_core@@UborderedXft@2@@std@@@2@$0A@@std@@@std@@@std@@_N@std@@QAE@AAV?$_Tree_const_iterator@V?$_Tree_val@V?$_Tset_traits@U?$pair@PAVxf_t@xlslib_core@@UborderedXft@2@@std@@VxfSorter@xlslib_core@@V?$allocator@U?$pair@PAVxf_t@xlslib_core@@UborderedXft@2@@std@@@2@$0A@@std@@@std@@@1@$$QA_N@Z
	??0?$vector@VCUnitStore@xlslib_core@@V?$allocator@VCUnitStore@xlslib_core@@@std@@@std@@QAE@XZ
	??$?0PAVxf_t@xlslib_core@@UborderedXft@1@@?$pair@PAVxf_t@xlslib_core@@UborderedXft@2@@std@@QAE@AAU01@@Z
	??$?0PAVxf_t@xlslib_core@@UborderedXft@1@@?$pair@PAVxf_t@xlslib_core@@UborderedXft@2@@std@@QAE@$$QAU01@@Z
	?_Incsize@?$list@PAV?$basic_string@DU?$char_traits@D@std@@V?$allocator@D@2@@std@@V?$allocator@PAV?$basic_string@DU?$char_traits@D@std@@V?$allocator@D@2@@std@@@2@@std@@QAEXI@Z
	??$?0AAPAVxf_t@xlslib_core@@AAUborderedXft@1@@?$pair@PAVxf_t@xlslib_core@@UborderedXft@2@@std@@QAE@AAPAVxf_t@xlslib_core@@AAUborderedXft@3@@Z
	??0?$_Pair_base@PAVxf_t@xlslib_core@@UborderedXft@2@@std@@QAE@$$QAPAVxf_t@xlslib_core@@$$QAUborderedXft@3@@Z
	?GetWindow1@CGlobalRecords@xlslib_core@@QAEAAVwindow1@2@XZ
	?GetPreviousIndex@COleProp@xlslib_core@@QBEHXZ
	?IsEx4macro@boundsheet_t@xlslib_core@@QBE_NXZ
	?IsChart@boundsheet_t@xlslib_core@@QBE_NXZ
	?IsVisible@boundsheet_t@xlslib_core@@QBE_NXZ
	?IsHidden@boundsheet_t@xlslib_core@@QBE_NXZ
	?_Erase@?$_Tree@V?$_Tset_traits@PAVcell_t@xlslib_core@@Vinsertsort@2@V?$allocator@PAVcell_t@xlslib_core@@@std@@$0A@@std@@@std@@IAEXPAU_Node@?$_Tree_nod@V?$_Tset_traits@PAVcell_t@xlslib_core@@Vinsertsort@2@V?$allocator@PAVcell_t@xlslib_core@@@std@@$0A@@std@@@2@@Z
	??0boundsheet_t@xlslib_core@@QAE@AAVCGlobalRecords@1@ABV?$basic_string@GU?$char_traits@G@std@@V?$allocator@G@2@@std@@GI@Z
	?SetAttributes@boundsheet_t@xlslib_core@@QAEXG@Z
	?SetSheetStreamPosition@boundsheet_t@xlslib_core@@QAEXI@Z
	??0CCodePage@xlslib_core@@IAE@AAVCDataStorage@1@G@Z
	??1window1@xlslib_core@@UAE@XZ
	??0CWindow1@xlslib_core@@IAE@AAVCDataStorage@1@ABVwindow1@1@@Z
	??1CRow@xlslib_core@@EAE@XZ
	??1CFont@xlslib_core@@EAE@XZ
	??1CStyle@xlslib_core@@EAE@XZ
	??1CPalette@xlslib_core@@EAE@XZ
	??1CDBCell@xlslib_core@@EAE@XZ
	??1CBof@xlslib_core@@EAE@XZ
	??1CLabel@xlslib_core@@EAE@XZ
	??1CBSheet@xlslib_core@@EAE@XZ
	??1CCodePage@xlslib_core@@EAE@XZ
	??1CBoolean@xlslib_core@@EAE@XZ
	??1CWindow2@xlslib_core@@EAE@XZ
	??1CEof@xlslib_core@@EAE@XZ
	??$_Umove@PAUrowblocksize_t@xlslib_core@@@?$vector@Urowblocksize_t@xlslib_core@@V?$allocator@Urowblocksize_t@xlslib_core@@@std@@@std@@IAEPAUrowblocksize_t@xlslib_core@@PAU23@00@Z
	??1CBlank@xlslib_core@@EAE@XZ
	??1CNote@xlslib_core@@EAE@XZ
	??1CHPSFdoc@xlslib_core@@EAE@XZ
	??0CDateMode@xlslib_core@@IAE@AAVCDataStorage@1@@Z
	??0CWindow2@xlslib_core@@IAE@AAVCDataStorage@1@_N@Z
	??0CDimension@xlslib_core@@IAE@AAVCDataStorage@1@IIII@Z
	??0?$_Tree_nod@V?$_Tset_traits@PAVrowheight_t@xlslib_core@@Vrowheightsort@2@V?$allocator@PAVrowheight_t@xlslib_core@@@std@@$0A@@std@@@std@@QAE@ABVrowheightsort@xlslib_core@@V?$allocator@PAVrowheight_t@xlslib_core@@@1@@Z
	?SetSelected@CWindow2@xlslib_core@@QAEXXZ
	?SetPaged@CWindow2@xlslib_core@@QAEXXZ
	?ClearSelected@CWindow2@xlslib_core@@QAEXXZ
	?ClearPaged@CWindow2@xlslib_core@@QAEXXZ
	??0CStyle@xlslib_core@@IAE@AAVCDataStorage@1@PBUstyle_t@1@@Z
	??8?$_String_const_iterator@GU?$char_traits@G@std@@V?$allocator@G@2@@std@@QBE_NABV01@@Z
	??0CBSheet@xlslib_core@@IAE@AAVCDataStorage@1@PBVboundsheet_t@1@@Z
	?_Lbound@?$_Tree@V?$_Tset_traits@PAUcolinfo_t@xlslib_core@@Vcolinfosort@2@V?$allocator@PAUcolinfo_t@xlslib_core@@@std@@$0A@@std@@@std@@IAEPAU_Node@?$_Tree_nod@V?$_Tset_traits@PAUcolinfo_t@xlslib_core@@Vcolinfosort@2@V?$allocator@PAUcolinfo_t@xlslib_core@@@std@@$0A@@std@@@2@ABQAUcolinfo_t@xlslib_core@@@Z
	?SetStreamPosition@CBSheet@xlslib_core@@QAEXI@Z
	??0CRecord@xlslib_core@@IAE@AAVCDataStorage@1@@Z
	??G?$_Vector_iterator@V?$_Vector_val@PAVrange_t@xlslib_core@@V?$allocator@PAVrange_t@xlslib_core@@@std@@@std@@@std@@QBEHABV?$_Vector_const_iterator@V?$_Vector_val@PAVrange_t@xlslib_core@@V?$allocator@PAVrange_t@xlslib_core@@@std@@@std@@@1@@Z
	?SetRecordType@CRecord@xlslib_core@@QAEDG@Z
	?_Make_iter@?$vector@PAVboundsheet_t@xlslib_core@@V?$allocator@PAVboundsheet_t@xlslib_core@@@std@@@std@@QBE?AV?$_Vector_iterator@V?$_Vector_val@PAVboundsheet_t@xlslib_core@@V?$allocator@PAVboundsheet_t@xlslib_core@@@std@@@std@@@2@V?$_Vector_const_iterator@V?$_Vector_val@PAVboundsheet_t@xlslib_core@@V?$allocator@PAVboundsheet_t@xlslib_core@@@std@@@std@@@2@@Z
	?GetRecordType@CRecord@xlslib_core@@QBEGXZ
	??1?$vector@PAVfont_t@xlslib_core@@V?$allocator@PAVfont_t@xlslib_core@@@std@@@std@@QAE@XZ
	?SetRecordLength@CRecord@xlslib_core@@QAEDI@Z
	?SetValueAt16@CUnit@xlslib_core@@QAEDGI@Z
	?SetRecordLengthIndexed@CRecord@xlslib_core@@QAEDII@Z
	?GetRecordLength@CRecord@xlslib_core@@QBEIXZ
	?GetRecordDataBuffer@CRecord@xlslib_core@@QBEPBEXZ
	??1rowheight_t@xlslib_core@@UAE@XZ
	??0CRow@xlslib_core@@IAE@AAVCDataStorage@1@IIIGPBVxf_t@1@@Z
	??0CDBCell@xlslib_core@@IAE@AAVCDataStorage@1@I@Z
	??9?$_Vector_const_iterator@V?$_Vector_val@PAVrange@xlslib_core@@V?$allocator@PAVrange@xlslib_core@@@std@@@std@@@std@@QBE_NABV01@@Z
	?GetActiveSheet@window1@xlslib_core@@QBEGXZ
	?BackPatchingLevel@CUnit@xlslib_core@@QBEGXZ
	?_Tidy@?$vector@PAUHyperLink@xlslib_core@@V?$allocator@PAUHyperLink@xlslib_core@@@std@@@std@@IAEXXZ
	?GetRowHeight@rowheight_t@xlslib_core@@QAEGXZ
	??Rrowheightsort@xlslib_core@@QBE_NABQAVrowheight_t@1@0@Z
	?SetActiveSheet@window1@xlslib_core@@QAEXG@Z
	??Rcolinfosort@xlslib_core@@QBE_NABQAUcolinfo_t@1@0@Z
	??0COleProp@xlslib_core@@QAE@HABV?$basic_string@DU?$char_traits@D@std@@V?$allocator@D@2@@std@@PAVCDataStorage@1@@Z
	??0rowblocksize_t@xlslib_core@@QAE@XZ
	?reset@rowblocksize_t@xlslib_core@@QAEXXZ
	??0worksheet@xlslib_core@@AAE@AAVCGlobalRecords@1@G@Z
	??1worksheet@xlslib_core@@EAE@XZ
	??1HyperLink@xlslib_core@@QAE@XZ
	?RowBlocksDump@worksheet@xlslib_core@@AAEPAVCUnit@2@AAVCDataStorage@2@I@Z
	?EstimateNumBiffUnitsNeeded@worksheet@xlslib_core@@AAEIXZ
	xlsWorksheetMakeActive
	?MakeActive@worksheet@xlslib_core@@QAEXXZ
	?formula_data@worksheet@xlslib_core@@QAEPAVformula_t@2@XZ
	?label@worksheet@xlslib_core@@QAEPAVcell_t@2@IIABV?$basic_string@DU?$char_traits@D@std@@V?$allocator@D@2@@std@@PAVxf_t@2@@Z
	?label@worksheet@xlslib_core@@QAEPAVcell_t@2@IIABV?$basic_string@_WU?$char_traits@_W@std@@V?$allocator@_W@2@@std@@PAVxf_t@2@@Z
	?number@worksheet@xlslib_core@@QAEPAVcell_t@2@IINW4format_number_t@2@PAVxf_t@2@@Z
	??$_Cons_val@V?$allocator@PBVlabel_t@xlslib_core@@@std@@PBVlabel_t@xlslib_core@@PBV34@@std@@YAXAAV?$allocator@PBVlabel_t@xlslib_core@@@0@PAPBVlabel_t@xlslib_core@@$$QAPBV23@@Z
	?number@worksheet@xlslib_core@@QAEPAVcell_t@2@IINPAVxf_t@2@@Z
	?AddValue32@CUnit@xlslib_core@@QAEDI@Z
	?number@worksheet@xlslib_core@@QAEPAVcell_t@2@IIIPAVxf_t@2@@Z
	?error@worksheet@xlslib_core@@QAEPAVcell_t@2@IIW4errcode_t@2@PAVxf_t@2@@Z
	?note@worksheet@xlslib_core@@QAEPAVcell_t@2@IIABV?$basic_string@DU?$char_traits@D@std@@V?$allocator@D@2@@std@@0PAVxf_t@2@@Z
	?push_back@?$vector@PAVformat_t@xlslib_core@@V?$allocator@PAVformat_t@xlslib_core@@@std@@@std@@QAEXABQAVformat_t@xlslib_core@@@Z
	?note@worksheet@xlslib_core@@QAEPAVcell_t@2@IIABV?$basic_string@_WU?$char_traits@_W@std@@V?$allocator@_W@2@@std@@0PAVxf_t@2@@Z
	??9?$_Vector_const_iterator@V?$_Vector_val@VCUnitStore@xlslib_core@@V?$allocator@VCUnitStore@xlslib_core@@@std@@@std@@@std@@QBE_NABV01@@Z
	?blank@worksheet@xlslib_core@@QAEPAVcell_t@2@IIPAVxf_t@2@@Z
	?AddCell@worksheet@xlslib_core@@AAEXPAVcell_t@2@@Z
	?push_back@?$vector@PAUHyperLink@xlslib_core@@V?$allocator@PAUHyperLink@xlslib_core@@@std@@@std@@QAEXABQAUHyperLink@xlslib_core@@@Z
	?FindCellOrMakeBlank@worksheet@xlslib_core@@QAEPAVcell_t@2@II@Z
	?GetRowBlockSizes@worksheet@xlslib_core@@AAE_NAAUrowblocksize_t@2@@Z
	?GetFirstLastRowsAndColumns@worksheet@xlslib_core@@QAEXPAI000@Z
	?GetNumRowBlocks@worksheet@xlslib_core@@AAEIPAUrowblocksize_t@2@@Z
	?_Key@?$_Tree_val@V?$_Tset_traits@PAVHPSFitem@xlslib_core@@Vinsertsort2@2@V?$allocator@PAVHPSFitem@xlslib_core@@@std@@$0A@@std@@@std@@SAAAPAVHPSFitem@xlslib_core@@PAU_Node@?$_Tree_nod@V?$_Tset_traits@PAVHPSFitem@xlslib_core@@Vinsertsort2@2@V?$allocator@PAVHPSFitem@xlslib_core@@@std@@$0A@@std@@@2@@Z
	?merge@worksheet@xlslib_core@@QAEXIIII@Z
	?rowheight@worksheet@xlslib_core@@QAEXIGPAVxf_t@2@@Z
	?rangegroup@worksheet@xlslib_core@@QAEPAVrange@2@IIII@Z
	?validate@worksheet@xlslib_core@@QAEXPBVrange_t@2@IPBVformula_t@2@1ABV?$basic_string@DU?$char_traits@D@std@@V?$allocator@D@2@@std@@222@Z
	?hyperLink@worksheet@xlslib_core@@QAEXPBVcell_t@2@ABV?$basic_string@DU?$char_traits@D@std@@V?$allocator@D@2@@std@@1@Z
	?MakeHyperLink@worksheet@xlslib_core@@AAEPAVCUnit@2@AAVCDataStorage@2@PAUHyperLink@2@@Z
	?end@?$vector@PAVworksheet@xlslib_core@@V?$allocator@PAVworksheet@xlslib_core@@@std@@@std@@QAE?AV?$_Vector_iterator@V?$_Vector_val@PAVworksheet@xlslib_core@@V?$allocator@PAVworksheet@xlslib_core@@@std@@@std@@@2@XZ
	??8?$_Vector_const_iterator@V?$_Vector_val@PAVCOleProp@xlslib_core@@V?$allocator@PAVCOleProp@xlslib_core@@@std@@@std@@@std@@QBE_NABV01@@Z
	?end@?$_Tree@V?$_Tset_traits@PAVrowheight_t@xlslib_core@@Vrowheightsort@2@V?$allocator@PAVrowheight_t@xlslib_core@@@std@@$0A@@std@@@std@@QAE?AV?$_Tree_const_iterator@V?$_Tree_val@V?$_Tset_traits@PAVrowheight_t@xlslib_core@@Vrowheightsort@2@V?$allocator@PAVrowheight_t@xlslib_core@@@std@@$0A@@std@@@std@@@2@XZ
	?end@?$vector@PAVxf_t@xlslib_core@@V?$allocator@PAVxf_t@xlslib_core@@@std@@@std@@QAE?AV?$_Vector_iterator@V?$_Vector_val@PAVxf_t@xlslib_core@@V?$allocator@PAVxf_t@xlslib_core@@@std@@@std@@@2@XZ
	?DumpHeader@COleDoc@xlslib_core@@AAEHUblocks@2@I@Z
	?end@?$vector@PAUstyle_t@xlslib_core@@V?$allocator@PAUstyle_t@xlslib_core@@@std@@@std@@QAE?AV?$_Vector_iterator@V?$_Vector_val@PAUstyle_t@xlslib_core@@V?$allocator@PAUstyle_t@xlslib_core@@@std@@@std@@@2@XZ
	?end@?$_Tree@V?$_Tset_traits@PAVcell_t@xlslib_core@@Vinsertsort@2@V?$allocator@PAVcell_t@xlslib_core@@@std@@$0A@@std@@@std@@QAE?AV?$_Tree_const_iterator@V?$_Tree_val@V?$_Tset_traits@PAVcell_t@xlslib_core@@Vinsertsort@2@V?$allocator@PAVcell_t@xlslib_core@@@std@@$0A@@std@@@std@@@2@XZ
	?end@?$vector@PAUDataValidation@xlslib_core@@V?$allocator@PAUDataValidation@xlslib_core@@@std@@@std@@QAE?AV?$_Vector_iterator@V?$_Vector_val@PAUDataValidation@xlslib_core@@V?$allocator@PAUDataValidation@xlslib_core@@@std@@@std@@@2@XZ
	?end@?$_Tree@V?$_Tset_traits@PAVHPSFitem@xlslib_core@@Vinsertsort2@2@V?$allocator@PAVHPSFitem@xlslib_core@@@std@@$0A@@std@@@std@@QBE?AV?$_Tree_const_iterator@V?$_Tree_val@V?$_Tset_traits@PAVHPSFitem@xlslib_core@@Vinsertsort2@2@V?$allocator@PAVHPSFitem@xlslib_core@@@std@@$0A@@std@@@std@@@2@XZ
	?end@?$vector@VCUnitStore@xlslib_core@@V?$allocator@VCUnitStore@xlslib_core@@@std@@@std@@QAE?AV?$_Vector_iterator@V?$_Vector_val@VCUnitStore@xlslib_core@@V?$allocator@VCUnitStore@xlslib_core@@@std@@@std@@@2@XZ
	?end@?$vector@Urowblocksize_t@xlslib_core@@V?$allocator@Urowblocksize_t@xlslib_core@@@std@@@std@@QAE?AV?$_Vector_iterator@V?$_Vector_val@Urowblocksize_t@xlslib_core@@V?$allocator@Urowblocksize_t@xlslib_core@@@std@@@std@@@2@XZ
	??$_Construct@PAVCOleProp@xlslib_core@@ABQAV12@@std@@YAXPAPAVCOleProp@xlslib_core@@ABQAV12@@Z
	?end@?$vector@PBVlabel_t@xlslib_core@@V?$allocator@PBVlabel_t@xlslib_core@@@std@@@std@@QAE?AV?$_Vector_iterator@V?$_Vector_val@PBVlabel_t@xlslib_core@@V?$allocator@PBVlabel_t@xlslib_core@@@std@@@std@@@2@XZ
	?sheet@workbook@xlslib_core@@QAEPAVworksheet@2@ABV?$basic_string@DU?$char_traits@D@std@@V?$allocator@D@2@@std@@@Z
	??0?$vector@V?$basic_string@_WU?$char_traits@_W@std@@V?$allocator@_W@2@@std@@V?$allocator@V?$basic_string@_WU?$char_traits@_W@std@@V?$allocator@_W@2@@std@@@2@@std@@QAE@XZ
	?end@?$vector@PAVformat_t@xlslib_core@@V?$allocator@PAVformat_t@xlslib_core@@@std@@@std@@QAE?AV?$_Vector_iterator@V?$_Vector_val@PAVformat_t@xlslib_core@@V?$allocator@PAVformat_t@xlslib_core@@@std@@@std@@@2@XZ
	?end@?$_Tree@V?$_Tset_traits@PAUcolinfo_t@xlslib_core@@Vcolinfosort@2@V?$allocator@PAUcolinfo_t@xlslib_core@@@std@@$0A@@std@@@std@@QAE?AV?$_Tree_const_iterator@V?$_Tree_val@V?$_Tset_traits@PAUcolinfo_t@xlslib_core@@Vcolinfosort@2@V?$allocator@PAUcolinfo_t@xlslib_core@@@std@@$0A@@std@@@std@@@2@XZ
	?end@?$vector@PAVrange_t@xlslib_core@@V?$allocator@PAVrange_t@xlslib_core@@@std@@@std@@QAE?AV?$_Vector_iterator@V?$_Vector_val@PAVrange_t@xlslib_core@@V?$allocator@PAVrange_t@xlslib_core@@@std@@@std@@@2@XZ
	?end@?$vector@PBVlabel_t@xlslib_core@@V?$allocator@PBVlabel_t@xlslib_core@@@std@@@std@@QBE?AV?$_Vector_const_iterator@V?$_Vector_val@PBVlabel_t@xlslib_core@@V?$allocator@PBVlabel_t@xlslib_core@@@std@@@std@@@2@XZ
	?begin@CDataStorage@xlslib_core@@QAE?AV?$_Vector_iterator@V?$_Vector_val@VCUnitStore@xlslib_core@@V?$allocator@VCUnitStore@xlslib_core@@@std@@@std@@@std@@XZ
	?end@?$vector@PAUHyperLink@xlslib_core@@V?$allocator@PAUHyperLink@xlslib_core@@@std@@@std@@QAE?AV?$_Vector_iterator@V?$_Vector_val@PAUHyperLink@xlslib_core@@V?$allocator@PAUHyperLink@xlslib_core@@@std@@@std@@@2@XZ
	?end@?$vector@PAVformula_t@xlslib_core@@V?$allocator@PAVformula_t@xlslib_core@@@std@@@std@@QAE?AV?$_Vector_iterator@V?$_Vector_val@PAVformula_t@xlslib_core@@V?$allocator@PAVformula_t@xlslib_core@@@std@@@std@@@2@XZ
	?end@?$vector@IV?$allocator@I@std@@@std@@QAE?AV?$_Vector_iterator@V?$_Vector_val@IV?$allocator@I@std@@@std@@@2@XZ
	?end@?$vector@PAVCOleProp@xlslib_core@@V?$allocator@PAVCOleProp@xlslib_core@@@std@@@std@@QAE?AV?$_Vector_iterator@V?$_Vector_val@PAVCOleProp@xlslib_core@@V?$allocator@PAVCOleProp@xlslib_core@@@std@@@std@@@2@XZ
	?GetRowNum@rowheight_t@xlslib_core@@QAEIXZ
	?size@?$_Tree@V?$_Tset_traits@PAVHPSFitem@xlslib_core@@Vinsertsort2@2@V?$allocator@PAVHPSFitem@xlslib_core@@@std@@$0A@@std@@@std@@QBEIXZ
	?deallocate@?$allocator@PAVworksheet@xlslib_core@@@std@@QAEXPAPAVworksheet@xlslib_core@@I@Z
	?size@?$_Tree@V?$_Tset_traits@PAVcell_t@xlslib_core@@Vinsertsort@2@V?$allocator@PAVcell_t@xlslib_core@@@std@@$0A@@std@@@std@@QBEIXZ
	?GetXF@cell_t@xlslib_core@@QBEPAVxf_t@2@XZ
	?size@?$_Tree@V?$_Tset_traits@PAUcolinfo_t@xlslib_core@@Vcolinfosort@2@V?$allocator@PAUcolinfo_t@xlslib_core@@@std@@$0A@@std@@@std@@QBEIXZ
	?GetIndex@CUnit@xlslib_core@@QBEHXZ
	?erase@?$_Tree@V?$_Tset_traits@PAVcell_t@xlslib_core@@Vinsertsort@2@V?$allocator@PAVcell_t@xlslib_core@@@std@@$0A@@std@@@std@@QAEIABQAVcell_t@xlslib_core@@@Z
	?find@?$_Tree@V?$_Tset_traits@PAVcell_t@xlslib_core@@Vinsertsort@2@V?$allocator@PAVcell_t@xlslib_core@@@std@@$0A@@std@@@std@@QBE?AV?$_Tree_const_iterator@V?$_Tree_val@V?$_Tset_traits@PAVcell_t@xlslib_core@@Vinsertsort@2@V?$allocator@PAVcell_t@xlslib_core@@@std@@$0A@@std@@@std@@@2@ABQAVcell_t@xlslib_core@@@Z
	?find@?$_Tree@V?$_Tset_traits@PAVrowheight_t@xlslib_core@@Vrowheightsort@2@V?$allocator@PAVrowheight_t@xlslib_core@@@std@@$0A@@std@@@std@@QAE?AV?$_Tree_const_iterator@V?$_Tree_val@V?$_Tset_traits@PAVrowheight_t@xlslib_core@@Vrowheightsort@2@V?$allocator@PAVrowheight_t@xlslib_core@@@std@@$0A@@std@@@std@@@2@ABQAVrowheight_t@xlslib_core@@@Z
	?isws@?A0x8d3bdd44@@YA_NDQBD@Z
	??0?$set@PAVHPSFitem@xlslib_core@@Vinsertsort2@2@V?$allocator@PAVHPSFitem@xlslib_core@@@std@@@std@@QAE@XZ
	??0?$_Tree@V?$_Tset_traits@PAUcolinfo_t@xlslib_core@@Vcolinfosort@2@V?$allocator@PAUcolinfo_t@xlslib_core@@@std@@$0A@@std@@@std@@QAE@ABVcolinfosort@xlslib_core@@ABV?$allocator@PAUcolinfo_t@xlslib_core@@@1@@Z
	??0?$set@PAVcell_t@xlslib_core@@Vinsertsort@2@V?$allocator@PAVcell_t@xlslib_core@@@std@@@std@@QAE@XZ
	?erase@?$_Tree@V?$_Tset_traits@PAVHPSFitem@xlslib_core@@Vinsertsort2@2@V?$allocator@PAVHPSFitem@xlslib_core@@@std@@$0A@@std@@@std@@QAE?AV?$_Tree_const_iterator@V?$_Tree_val@V?$_Tset_traits@PAVHPSFitem@xlslib_core@@Vinsertsort2@2@V?$allocator@PAVHPSFitem@xlslib_core@@@std@@$0A@@std@@@std@@@2@V32@0@Z
	?empty@?$_Tree@V?$_Tset_traits@PAUcolinfo_t@xlslib_core@@Vcolinfosort@2@V?$allocator@PAUcolinfo_t@xlslib_core@@@std@@$0A@@std@@@std@@QBE_NXZ
	?empty@?$_Tree@V?$_Tset_traits@PAVrowheight_t@xlslib_core@@Vrowheightsort@2@V?$allocator@PAVrowheight_t@xlslib_core@@@std@@$0A@@std@@@std@@QBE_NXZ
	?empty@?$_Tree@V?$_Tset_traits@PAVcell_t@xlslib_core@@Vinsertsort@2@V?$allocator@PAVcell_t@xlslib_core@@@std@@$0A@@std@@@std@@QBE_NXZ
	?clear@?$_Tree@V?$_Tset_traits@PAVcell_t@xlslib_core@@Vinsertsort@2@V?$allocator@PAVcell_t@xlslib_core@@@std@@$0A@@std@@@std@@QAEXXZ
	?clear@?$_Tree@V?$_Tset_traits@PAVHPSFitem@xlslib_core@@Vinsertsort2@2@V?$allocator@PAVHPSFitem@xlslib_core@@@std@@$0A@@std@@@std@@QAEXXZ
	?find@?$_Tree@V?$_Tset_traits@PAUcolinfo_t@xlslib_core@@Vcolinfosort@2@V?$allocator@PAUcolinfo_t@xlslib_core@@@std@@$0A@@std@@@std@@QAE?AV?$_Tree_const_iterator@V?$_Tree_val@V?$_Tset_traits@PAUcolinfo_t@xlslib_core@@Vcolinfosort@2@V?$allocator@PAUcolinfo_t@xlslib_core@@@std@@$0A@@std@@@std@@@2@ABQAUcolinfo_t@xlslib_core@@@Z
	??0?$vector@V?$basic_string@DU?$char_traits@D@std@@V?$allocator@D@2@@std@@V?$allocator@V?$basic_string@DU?$char_traits@D@std@@V?$allocator@D@2@@std@@@2@@std@@QAE@XZ
	??0?$vector@PAUHyperLink@xlslib_core@@V?$allocator@PAUHyperLink@xlslib_core@@@std@@@std@@QAE@XZ
	?_Tidy@?$vector@PAUstyle_t@xlslib_core@@V?$allocator@PAUstyle_t@xlslib_core@@@std@@@std@@IAEXXZ
	??0?$vector@PAVCOleProp@xlslib_core@@V?$allocator@PAVCOleProp@xlslib_core@@@std@@@std@@QAE@XZ
	??0?$vector@IV?$allocator@I@std@@@std@@QAE@XZ
	??0?$vector@PAVrange@xlslib_core@@V?$allocator@PAVrange@xlslib_core@@@std@@@std@@QAE@XZ
	??0?$vector@PAVformat_t@xlslib_core@@V?$allocator@PAVformat_t@xlslib_core@@@std@@@std@@QAE@XZ
	??0?$vector@PAVrange_t@xlslib_core@@V?$allocator@PAVrange_t@xlslib_core@@@std@@@std@@QAE@XZ
	?_Parent@?$_Tree_val@V?$_Tset_traits@PAVcell_t@xlslib_core@@Vinsertsort@2@V?$allocator@PAVcell_t@xlslib_core@@@std@@$0A@@std@@@std@@SAAAPAU_Node@?$_Tree_nod@V?$_Tset_traits@PAVcell_t@xlslib_core@@Vinsertsort@2@V?$allocator@PAVcell_t@xlslib_core@@@std@@$0A@@std@@@2@PAU342@@Z
	??0?$vector@Urowblocksize_t@xlslib_core@@V?$allocator@Urowblocksize_t@xlslib_core@@@std@@@std@@QAE@XZ
	??0?$vector@NV?$allocator@N@std@@@std@@QAE@XZ
	??0?$vector@PAVfont_t@xlslib_core@@V?$allocator@PAVfont_t@xlslib_core@@@std@@@std@@QAE@XZ
	??0?$vector@PAVformula_t@xlslib_core@@V?$allocator@PAVformula_t@xlslib_core@@@std@@@std@@QAE@XZ
	?imbue@?$basic_filebuf@DU?$char_traits@D@std@@@std@@MAEXABVlocale@2@@Z
	??0?$vector@PAVxf_t@xlslib_core@@V?$allocator@PAVxf_t@xlslib_core@@@std@@@std@@QAE@XZ
	??0?$vector@PAVboundsheet_t@xlslib_core@@V?$allocator@PAVboundsheet_t@xlslib_core@@@std@@@std@@QAE@XZ
	?_Tidy@?$vector@PAVworksheet@xlslib_core@@V?$allocator@PAVworksheet@xlslib_core@@@std@@@std@@IAEXXZ
	?_Tidy@?$vector@PAVformat_t@xlslib_core@@V?$allocator@PAVformat_t@xlslib_core@@@std@@@std@@IAEXXZ
	??1?$vector@PAUstyle_t@xlslib_core@@V?$allocator@PAUstyle_t@xlslib_core@@@std@@@std@@QAE@XZ
	?_Tidy@?$vector@IV?$allocator@I@std@@@std@@IAEXXZ
	??1?$vector@PAVrange_t@xlslib_core@@V?$allocator@PAVrange_t@xlslib_core@@@std@@@std@@QAE@XZ
	?_Tidy@?$vector@PAUDataValidation@xlslib_core@@V?$allocator@PAUDataValidation@xlslib_core@@@std@@@std@@IAEXXZ
	??1?$vector@PAVworksheet@xlslib_core@@V?$allocator@PAVworksheet@xlslib_core@@@std@@@std@@QAE@XZ
	??1?$vector@Urowblocksize_t@xlslib_core@@V?$allocator@Urowblocksize_t@xlslib_core@@@std@@@std@@QAE@XZ
	?firstTab@workbook@xlslib_core@@QAEXG@Z
	?_Tidy@?$vector@PAVxf_t@xlslib_core@@V?$allocator@PAVxf_t@xlslib_core@@@std@@@std@@IAEXXZ
	??1?$vector@PAVformula_t@xlslib_core@@V?$allocator@PAVformula_t@xlslib_core@@@std@@@std@@QAE@XZ
	??1?$vector@PAVCUnit@xlslib_core@@V?$allocator@PAVCUnit@xlslib_core@@@std@@@std@@QAE@XZ
	??9?$_Vector_const_iterator@V?$_Vector_val@IV?$allocator@I@std@@@std@@@std@@QBE_NABV01@@Z
	??1?$vector@PAVxf_t@xlslib_core@@V?$allocator@PAVxf_t@xlslib_core@@@std@@@std@@QAE@XZ
	??1?$vector@PAVboundsheet_t@xlslib_core@@V?$allocator@PAVboundsheet_t@xlslib_core@@@std@@@std@@QAE@XZ
	??1?$vector@PAVrange@xlslib_core@@V?$allocator@PAVrange@xlslib_core@@@std@@@std@@QAE@XZ
	?_Tidy@?$vector@PAVboundsheet_t@xlslib_core@@V?$allocator@PAVboundsheet_t@xlslib_core@@@std@@@std@@IAEXXZ
	??1?$vector@PAUDataValidation@xlslib_core@@V?$allocator@PAUDataValidation@xlslib_core@@@std@@@std@@QAE@XZ
	??1?$vector@PBVlabel_t@xlslib_core@@V?$allocator@PBVlabel_t@xlslib_core@@@std@@@std@@QAE@XZ
	?_Tidy@?$vector@NV?$allocator@N@std@@@std@@IAEXXZ
	??1?$vector@PAUHyperLink@xlslib_core@@V?$allocator@PAUHyperLink@xlslib_core@@@std@@@std@@QAE@XZ
	?_Initcvt@?$basic_filebuf@DU?$char_traits@D@std@@@std@@IAEXPBV?$codecvt@DDH@2@@Z
	?_Tidy@?$vector@PAVrange@xlslib_core@@V?$allocator@PAVrange@xlslib_core@@@std@@@std@@IAEXXZ
	??1?$vector@PAVCOleProp@xlslib_core@@V?$allocator@PAVCOleProp@xlslib_core@@@std@@@std@@QAE@XZ
	?construct@?$allocator@PBVlabel_t@xlslib_core@@@std@@QAEXPAPBVlabel_t@xlslib_core@@$$QAPBV34@@Z
	?SetChildIndex@COleProp@xlslib_core@@QAEHH@Z
	?_Tidy@?$vector@PAVrange_t@xlslib_core@@V?$allocator@PAVrange_t@xlslib_core@@@std@@@std@@IAEXXZ
	?begin@?$vector@PAUDataValidation@xlslib_core@@V?$allocator@PAUDataValidation@xlslib_core@@@std@@@std@@QAE?AV?$_Vector_iterator@V?$_Vector_val@PAUDataValidation@xlslib_core@@V?$allocator@PAUDataValidation@xlslib_core@@@std@@@std@@@2@XZ
	?begin@?$vector@PAVrange_t@xlslib_core@@V?$allocator@PAVrange_t@xlslib_core@@@std@@@std@@QAE?AV?$_Vector_iterator@V?$_Vector_val@PAVrange_t@xlslib_core@@V?$allocator@PAVrange_t@xlslib_core@@@std@@@std@@@2@XZ
	?begin@?$vector@PBVlabel_t@xlslib_core@@V?$allocator@PBVlabel_t@xlslib_core@@@std@@@std@@QBE?AV?$_Vector_const_iterator@V?$_Vector_val@PBVlabel_t@xlslib_core@@V?$allocator@PBVlabel_t@xlslib_core@@@std@@@std@@@2@XZ
	?begin@?$vector@IV?$allocator@I@std@@@std@@QAE?AV?$_Vector_iterator@V?$_Vector_val@IV?$allocator@I@std@@@std@@@2@XZ
	??8?$_Vector_const_iterator@V?$_Vector_val@VCUnitStore@xlslib_core@@V?$allocator@VCUnitStore@xlslib_core@@@std@@@std@@@std@@QBE_NABV01@@Z
	?begin@?$vector@PAVfont_t@xlslib_core@@V?$allocator@PAVfont_t@xlslib_core@@@std@@@std@@QBE?AV?$_Vector_const_iterator@V?$_Vector_val@PAVfont_t@xlslib_core@@V?$allocator@PAVfont_t@xlslib_core@@@std@@@std@@@2@XZ
	?begin@?$vector@PAVfont_t@xlslib_core@@V?$allocator@PAVfont_t@xlslib_core@@@std@@@std@@QAE?AV?$_Vector_iterator@V?$_Vector_val@PAVfont_t@xlslib_core@@V?$allocator@PAVfont_t@xlslib_core@@@std@@@std@@@2@XZ
	?begin@?$vector@PAVformula_t@xlslib_core@@V?$allocator@PAVformula_t@xlslib_core@@@std@@@std@@QAE?AV?$_Vector_iterator@V?$_Vector_val@PAVformula_t@xlslib_core@@V?$allocator@PAVformula_t@xlslib_core@@@std@@@std@@@2@XZ
	?begin@?$vector@PAVrange@xlslib_core@@V?$allocator@PAVrange@xlslib_core@@@std@@@std@@QAE?AV?$_Vector_iterator@V?$_Vector_val@PAVrange@xlslib_core@@V?$allocator@PAVrange@xlslib_core@@@std@@@std@@@2@XZ
	?begin@?$vector@PAVboundsheet_t@xlslib_core@@V?$allocator@PAVboundsheet_t@xlslib_core@@@std@@@std@@QAE?AV?$_Vector_iterator@V?$_Vector_val@PAVboundsheet_t@xlslib_core@@V?$allocator@PAVboundsheet_t@xlslib_core@@@std@@@std@@@2@XZ
	?begin@?$vector@PAVformat_t@xlslib_core@@V?$allocator@PAVformat_t@xlslib_core@@@std@@@std@@QAE?AV?$_Vector_iterator@V?$_Vector_val@PAVformat_t@xlslib_core@@V?$allocator@PAVformat_t@xlslib_core@@@std@@@std@@@2@XZ
	?begin@?$vector@PAVCUnit@xlslib_core@@V?$allocator@PAVCUnit@xlslib_core@@@std@@@std@@QAE?AV?$_Vector_iterator@V?$_Vector_val@PAVCUnit@xlslib_core@@V?$allocator@PAVCUnit@xlslib_core@@@std@@@std@@@2@XZ
	?begin@?$vector@PAVCOleProp@xlslib_core@@V?$allocator@PAVCOleProp@xlslib_core@@@std@@@std@@QAE?AV?$_Vector_iterator@V?$_Vector_val@PAVCOleProp@xlslib_core@@V?$allocator@PAVCOleProp@xlslib_core@@@std@@@std@@@2@XZ
	?begin@?$vector@VCUnitStore@xlslib_core@@V?$allocator@VCUnitStore@xlslib_core@@@std@@@std@@QAE?AV?$_Vector_iterator@V?$_Vector_val@VCUnitStore@xlslib_core@@V?$allocator@VCUnitStore@xlslib_core@@@std@@@std@@@2@XZ
	?begin@?$vector@PAVworksheet@xlslib_core@@V?$allocator@PAVworksheet@xlslib_core@@@std@@@std@@QAE?AV?$_Vector_iterator@V?$_Vector_val@PAVworksheet@xlslib_core@@V?$allocator@PAVworksheet@xlslib_core@@@std@@@std@@@2@XZ
	?size@?$vector@Urowblocksize_t@xlslib_core@@V?$allocator@Urowblocksize_t@xlslib_core@@@std@@@std@@QBEIXZ
	?push_back@?$vector@Urowblocksize_t@xlslib_core@@V?$allocator@Urowblocksize_t@xlslib_core@@@std@@@std@@QAEXABUrowblocksize_t@xlslib_core@@@Z
	?clear@?$vector@Urowblocksize_t@xlslib_core@@V?$allocator@Urowblocksize_t@xlslib_core@@@std@@@std@@QAEXXZ
	?push_back@?$vector@PAVrange_t@xlslib_core@@V?$allocator@PAVrange_t@xlslib_core@@@std@@@std@@QAEXABQAVrange_t@xlslib_core@@@Z
	?push_back@?$vector@PAVboundsheet_t@xlslib_core@@V?$allocator@PAVboundsheet_t@xlslib_core@@@std@@@std@@QAEXABQAVboundsheet_t@xlslib_core@@@Z
	?push_back@?$vector@PAUstyle_t@xlslib_core@@V?$allocator@PAUstyle_t@xlslib_core@@@std@@@std@@QAEXABQAUstyle_t@xlslib_core@@@Z
	??Y?$basic_string@DU?$char_traits@D@std@@V?$allocator@D@2@@std@@QAEAAV01@PBD@Z
	?push_back@?$vector@PAVCOleProp@xlslib_core@@V?$allocator@PAVCOleProp@xlslib_core@@@std@@@std@@QAEXABQAVCOleProp@xlslib_core@@@Z
	?push_back@?$vector@PAVxf_t@xlslib_core@@V?$allocator@PAVxf_t@xlslib_core@@@std@@@std@@QAEXABQAVxf_t@xlslib_core@@@Z
	?push_back@?$vector@PAVformula_t@xlslib_core@@V?$allocator@PAVformula_t@xlslib_core@@@std@@@std@@QAEXABQAVformula_t@xlslib_core@@@Z
	?push_back@?$vector@IV?$allocator@I@std@@@std@@QAEX$$QAI@Z
	?erase@?$_Tree@V?$_Tset_traits@PAVHPSFitem@xlslib_core@@Vinsertsort2@2@V?$allocator@PAVHPSFitem@xlslib_core@@@std@@$0A@@std@@@std@@QAE?AV?$_Tree_const_iterator@V?$_Tree_val@V?$_Tset_traits@PAVHPSFitem@xlslib_core@@Vinsertsort2@2@V?$allocator@PAVHPSFitem@xlslib_core@@@std@@$0A@@std@@@std@@@2@V32@@Z
	?push_back@?$vector@IV?$allocator@I@std@@@std@@QAEXABI@Z
	__TI2?AVbad_cast@std@@
	??E?$_Tree_const_iterator@V?$_Tree_val@V?$_Tset_traits@PAVcell_t@xlslib_core@@Vinsertsort@2@V?$allocator@PAVcell_t@xlslib_core@@@std@@$0A@@std@@@std@@@std@@QAE?AV01@H@Z
	??E?$_Tree_const_iterator@V?$_Tree_val@V?$_Tset_traits@PAVrowheight_t@xlslib_core@@Vrowheightsort@2@V?$allocator@PAVrowheight_t@xlslib_core@@@std@@$0A@@std@@@std@@@std@@QAE?AV01@H@Z
	??9?$_Tree_const_iterator@V?$_Tree_val@V?$_Tset_traits@PAVrowheight_t@xlslib_core@@Vrowheightsort@2@V?$allocator@PAVrowheight_t@xlslib_core@@@std@@$0A@@std@@@std@@@std@@QBE_NABV01@@Z
	?construct@?$allocator@Urowblocksize_t@xlslib_core@@@std@@QAEXPAUrowblocksize_t@xlslib_core@@ABU34@@Z
	??9?$_Vector_const_iterator@V?$_Vector_val@PAVCUnit@xlslib_core@@V?$allocator@PAVCUnit@xlslib_core@@@std@@@std@@@std@@QBE_NABV01@@Z
	??9?$_List_const_iterator@V?$_List_val@PAV?$basic_string@DU?$char_traits@D@std@@V?$allocator@D@2@@std@@V?$allocator@PAV?$basic_string@DU?$char_traits@D@std@@V?$allocator@D@2@@std@@@2@@std@@@std@@QBE_NABV01@@Z
	??9?$_Vector_const_iterator@V?$_Vector_val@PAVxf_t@xlslib_core@@V?$allocator@PAVxf_t@xlslib_core@@@std@@@std@@@std@@QBE_NABV01@@Z
	??9?$_Tree_const_iterator@V?$_Tree_val@V?$_Tset_traits@PAVHPSFitem@xlslib_core@@Vinsertsort2@2@V?$allocator@PAVHPSFitem@xlslib_core@@@std@@$0A@@std@@@std@@@std@@QBE_NABV01@@Z
	?eq_int_type@?$char_traits@D@std@@SA_NABH0@Z
	??0?$_Tree_nod@V?$_Tset_traits@PAVcell_t@xlslib_core@@Vinsertsort@2@V?$allocator@PAVcell_t@xlslib_core@@@std@@$0A@@std@@@std@@QAE@ABVinsertsort@xlslib_core@@V?$allocator@PAVcell_t@xlslib_core@@@1@@Z
	??9?$_Vector_const_iterator@V?$_Vector_val@PAUHyperLink@xlslib_core@@V?$allocator@PAUHyperLink@xlslib_core@@@std@@@std@@@std@@QBE_NABV01@@Z
	??9?$_String_const_iterator@DU?$char_traits@D@std@@V?$allocator@D@2@@std@@QBE_NABV01@@Z
	??9?$_Vector_const_iterator@V?$_Vector_val@PBVlabel_t@xlslib_core@@V?$allocator@PBVlabel_t@xlslib_core@@@std@@@std@@@std@@QBE_NABV01@@Z
	??9?$_String_const_iterator@GU?$char_traits@G@std@@V?$allocator@G@2@@std@@QBE_NABV01@@Z
	??9?$_Vector_const_iterator@V?$_Vector_val@PAVformat_t@xlslib_core@@V?$allocator@PAVformat_t@xlslib_core@@@std@@@std@@@std@@QBE_NABV01@@Z
	??9?$_Tree_const_iterator@V?$_Tree_val@V?$_Tset_traits@PAUcolinfo_t@xlslib_core@@Vcolinfosort@2@V?$allocator@PAUcolinfo_t@xlslib_core@@@std@@$0A@@std@@@std@@@std@@QBE_NABV01@@Z
	??9?$_Vector_const_iterator@V?$_Vector_val@PAVfont_t@xlslib_core@@V?$allocator@PAVfont_t@xlslib_core@@@std@@@std@@@std@@QBE_NABV01@@Z
	??9?$_Vector_const_iterator@V?$_Vector_val@PAUDataValidation@xlslib_core@@V?$allocator@PAUDataValidation@xlslib_core@@@std@@@std@@@std@@QBE_NABV01@@Z
	??9?$_Vector_const_iterator@V?$_Vector_val@PAVrange_t@xlslib_core@@V?$allocator@PAVrange_t@xlslib_core@@@std@@@std@@@std@@QBE_NABV01@@Z
	??E?$_Vector_iterator@V?$_Vector_val@Urowblocksize_t@xlslib_core@@V?$allocator@Urowblocksize_t@xlslib_core@@@std@@@std@@@std@@QAE?AV01@H@Z
	??E?$_Vector_iterator@V?$_Vector_val@PAVboundsheet_t@xlslib_core@@V?$allocator@PAVboundsheet_t@xlslib_core@@@std@@@std@@@std@@QAE?AV01@H@Z
	??E?$_Vector_iterator@V?$_Vector_val@PAVformat_t@xlslib_core@@V?$allocator@PAVformat_t@xlslib_core@@@std@@@std@@@std@@QAE?AV01@H@Z
	??E?$_Vector_iterator@V?$_Vector_val@PAUstyle_t@xlslib_core@@V?$allocator@PAUstyle_t@xlslib_core@@@std@@@std@@@std@@QAE?AV01@H@Z
	??E?$_Vector_iterator@V?$_Vector_val@PAVrange_t@xlslib_core@@V?$allocator@PAVrange_t@xlslib_core@@@std@@@std@@@std@@QAE?AV01@H@Z
	??E?$_Vector_iterator@V?$_Vector_val@IV?$allocator@I@std@@@std@@@std@@QAE?AV01@H@Z
	??E?$_Vector_iterator@V?$_Vector_val@PAVformula_t@xlslib_core@@V?$allocator@PAVformula_t@xlslib_core@@@std@@@std@@@std@@QAE?AV01@H@Z
	??E?$_Vector_iterator@V?$_Vector_val@PAVCUnit@xlslib_core@@V?$allocator@PAVCUnit@xlslib_core@@@std@@@std@@@std@@QAE?AV01@H@Z
	??E?$_Vector_iterator@V?$_Vector_val@PAVrange@xlslib_core@@V?$allocator@PAVrange@xlslib_core@@@std@@@std@@@std@@QAE?AV01@H@Z
	??E?$_Vector_iterator@V?$_Vector_val@PAUDataValidation@xlslib_core@@V?$allocator@PAUDataValidation@xlslib_core@@@std@@@std@@@std@@QAE?AV01@H@Z
	??4?$pair@V?$_Tree_const_iterator@V?$_Tree_val@V?$_Tset_traits@PAVcell_t@xlslib_core@@Vinsertsort@2@V?$allocator@PAVcell_t@xlslib_core@@@std@@$0A@@std@@@std@@@std@@_N@std@@QAEAAU01@$$QAU01@@Z
	?lower_bound@?$_Tree@V?$_Tset_traits@PAVcell_t@xlslib_core@@Vinsertsort@2@V?$allocator@PAVcell_t@xlslib_core@@@std@@$0A@@std@@@std@@QBE?AV?$_Tree_const_iterator@V?$_Tree_val@V?$_Tset_traits@PAVcell_t@xlslib_core@@Vinsertsort@2@V?$allocator@PAVcell_t@xlslib_core@@@std@@$0A@@std@@@std@@@2@ABQAVcell_t@xlslib_core@@@Z
	?_Root@?$_Tree@V?$_Tset_traits@PAVrowheight_t@xlslib_core@@Vrowheightsort@2@V?$allocator@PAVrowheight_t@xlslib_core@@@std@@$0A@@std@@@std@@IBEAAPAU_Node@?$_Tree_nod@V?$_Tset_traits@PAVrowheight_t@xlslib_core@@Vrowheightsort@2@V?$allocator@PAVrowheight_t@xlslib_core@@@std@@$0A@@std@@@2@XZ
	?_Root@?$_Tree@V?$_Tset_traits@PAVcell_t@xlslib_core@@Vinsertsort@2@V?$allocator@PAVcell_t@xlslib_core@@@std@@$0A@@std@@@std@@IBEAAPAU_Node@?$_Tree_nod@V?$_Tset_traits@PAVcell_t@xlslib_core@@Vinsertsort@2@V?$allocator@PAVcell_t@xlslib_core@@@std@@$0A@@std@@@2@XZ
	?_Root@?$_Tree@V?$_Tset_traits@PAVHPSFitem@xlslib_core@@Vinsertsort2@2@V?$allocator@PAVHPSFitem@xlslib_core@@@std@@$0A@@std@@@std@@IBEAAPAU_Node@?$_Tree_nod@V?$_Tset_traits@PAVHPSFitem@xlslib_core@@Vinsertsort2@2@V?$allocator@PAVHPSFitem@xlslib_core@@@std@@$0A@@std@@@2@XZ
	?_Root@?$_Tree@V?$_Tset_traits@U?$pair@PAVxf_t@xlslib_core@@UborderedXft@2@@std@@VxfSorter@xlslib_core@@V?$allocator@U?$pair@PAVxf_t@xlslib_core@@UborderedXft@2@@std@@@2@$0A@@std@@@std@@IBEAAPAU_Node@?$_Tree_nod@V?$_Tset_traits@U?$pair@PAVxf_t@xlslib_core@@UborderedXft@2@@std@@VxfSorter@xlslib_core@@V?$allocator@U?$pair@PAVxf_t@xlslib_core@@UborderedXft@2@@std@@@2@$0A@@std@@@2@XZ
	?_Root@?$_Tree@V?$_Tset_traits@PAUcolinfo_t@xlslib_core@@Vcolinfosort@2@V?$allocator@PAUcolinfo_t@xlslib_core@@@std@@$0A@@std@@@std@@IBEAAPAU_Node@?$_Tree_nod@V?$_Tset_traits@PAUcolinfo_t@xlslib_core@@Vcolinfosort@2@V?$allocator@PAUcolinfo_t@xlslib_core@@@std@@$0A@@std@@@2@XZ
	?_Myval@?$_Tree_val@V?$_Tset_traits@PAVHPSFitem@xlslib_core@@Vinsertsort2@2@V?$allocator@PAVHPSFitem@xlslib_core@@@std@@$0A@@std@@@std@@SAAAPAVHPSFitem@xlslib_core@@PAU_Node@?$_Tree_nod@V?$_Tset_traits@PAVHPSFitem@xlslib_core@@Vinsertsort2@2@V?$allocator@PAVHPSFitem@xlslib_core@@@std@@$0A@@std@@@2@@Z
	?_Key@?$_Tree_val@V?$_Tset_traits@PAVrowheight_t@xlslib_core@@Vrowheightsort@2@V?$allocator@PAVrowheight_t@xlslib_core@@@std@@$0A@@std@@@std@@SAAAPAVrowheight_t@xlslib_core@@PAU_Node@?$_Tree_nod@V?$_Tset_traits@PAVrowheight_t@xlslib_core@@Vrowheightsort@2@V?$allocator@PAVrowheight_t@xlslib_core@@@std@@$0A@@std@@@2@@Z
	?_Key@?$_Tree_val@V?$_Tset_traits@U?$pair@PAVxf_t@xlslib_core@@UborderedXft@2@@std@@VxfSorter@xlslib_core@@V?$allocator@U?$pair@PAVxf_t@xlslib_core@@UborderedXft@2@@std@@@2@$0A@@std@@@std@@SAAAU?$pair@PAVxf_t@xlslib_core@@UborderedXft@2@@2@PAU_Node@?$_Tree_nod@V?$_Tset_traits@U?$pair@PAVxf_t@xlslib_core@@UborderedXft@2@@std@@VxfSorter@xlslib_core@@V?$allocator@U?$pair@PAVxf_t@xlslib_core@@UborderedXft@2@@std@@@2@$0A@@std@@@2@@Z
	?_Myval@?$_Tree_val@V?$_Tset_traits@PAUcolinfo_t@xlslib_core@@Vcolinfosort@2@V?$allocator@PAUcolinfo_t@xlslib_core@@@std@@$0A@@std@@@std@@SAAAPAUcolinfo_t@xlslib_core@@PAU_Node@?$_Tree_nod@V?$_Tset_traits@PAUcolinfo_t@xlslib_core@@Vcolinfosort@2@V?$allocator@PAUcolinfo_t@xlslib_core@@@std@@$0A@@std@@@2@@Z
	?_Key@?$_Tree_val@V?$_Tset_traits@PAUcolinfo_t@xlslib_core@@Vcolinfosort@2@V?$allocator@PAUcolinfo_t@xlslib_core@@@std@@$0A@@std@@@std@@SAAAPAUcolinfo_t@xlslib_core@@PAU_Node@?$_Tree_nod@V?$_Tset_traits@PAUcolinfo_t@xlslib_core@@Vcolinfosort@2@V?$allocator@PAUcolinfo_t@xlslib_core@@@std@@$0A@@std@@@2@@Z
	?_Inside@?$vector@PAVxf_t@xlslib_core@@V?$allocator@PAVxf_t@xlslib_core@@@std@@@std@@IBE_NPBQAVxf_t@xlslib_core@@@Z
	?_Inside@?$vector@V?$basic_string@DU?$char_traits@D@std@@V?$allocator@D@2@@std@@V?$allocator@V?$basic_string@DU?$char_traits@D@std@@V?$allocator@D@2@@std@@@2@@std@@IBE_NPBV?$basic_string@DU?$char_traits@D@std@@V?$allocator@D@2@@2@@Z
	?_Inside@?$vector@PAVCOleProp@xlslib_core@@V?$allocator@PAVCOleProp@xlslib_core@@@std@@@std@@IBE_NPBQAVCOleProp@xlslib_core@@@Z
	?_Inside@?$vector@PAUHyperLink@xlslib_core@@V?$allocator@PAUHyperLink@xlslib_core@@@std@@@std@@IBE_NPBQAUHyperLink@xlslib_core@@@Z
	?_Inside@?$vector@PAVformula_t@xlslib_core@@V?$allocator@PAVformula_t@xlslib_core@@@std@@@std@@IBE_NPBQAVformula_t@xlslib_core@@@Z
	?_Inside@?$vector@V?$basic_string@_WU?$char_traits@_W@std@@V?$allocator@_W@2@@std@@V?$allocator@V?$basic_string@_WU?$char_traits@_W@std@@V?$allocator@_W@2@@std@@@2@@std@@IBE_NPBV?$basic_string@_WU?$char_traits@_W@std@@V?$allocator@_W@2@@2@@Z
	?_Rrotate@?$_Tree@V?$_Tset_traits@PAVcell_t@xlslib_core@@Vinsertsort@2@V?$allocator@PAVcell_t@xlslib_core@@@std@@$0A@@std@@@std@@IAEXPAU_Node@?$_Tree_nod@V?$_Tset_traits@PAVcell_t@xlslib_core@@Vinsertsort@2@V?$allocator@PAVcell_t@xlslib_core@@@std@@$0A@@std@@@2@@Z
	?_Inside@?$vector@VCUnitStore@xlslib_core@@V?$allocator@VCUnitStore@xlslib_core@@@std@@@std@@IBE_NPBVCUnitStore@xlslib_core@@@Z
	?_Inside@?$vector@IV?$allocator@I@std@@@std@@IBE_NPBI@Z
	?_Inside@?$vector@PAVrange_t@xlslib_core@@V?$allocator@PAVrange_t@xlslib_core@@@std@@@std@@IBE_NPBQAVrange_t@xlslib_core@@@Z
	?allocate@?$allocator@PAVformat_t@xlslib_core@@@std@@QAEPAPAVformat_t@xlslib_core@@I@Z
	?_Inside@?$vector@Urowblocksize_t@xlslib_core@@V?$allocator@Urowblocksize_t@xlslib_core@@@std@@@std@@IBE_NPBUrowblocksize_t@xlslib_core@@@Z
	?_Inside@?$vector@PAVworksheet@xlslib_core@@V?$allocator@PAVworksheet@xlslib_core@@@std@@@std@@IBE_NPBQAVworksheet@xlslib_core@@@Z
	?BORDERSTYLE_OPTIONS_TABLE@xf_t@xlslib_core@@0QBEB
	?_Inside@?$vector@PAUstyle_t@xlslib_core@@V?$allocator@PAUstyle_t@xlslib_core@@@std@@@std@@IBE_NPBQAUstyle_t@xlslib_core@@@Z
	??0?$_Vector_val@IV?$allocator@I@std@@@std@@QAE@V?$allocator@I@1@@Z
	??0?$_Vector_val@PAVCOleProp@xlslib_core@@V?$allocator@PAVCOleProp@xlslib_core@@@std@@@std@@QAE@V?$allocator@PAVCOleProp@xlslib_core@@@1@@Z
	??0?$_Vector_val@PAVrange_t@xlslib_core@@V?$allocator@PAVrange_t@xlslib_core@@@std@@@std@@QAE@V?$allocator@PAVrange_t@xlslib_core@@@1@@Z
	??0?$_Vector_val@PAUHyperLink@xlslib_core@@V?$allocator@PAUHyperLink@xlslib_core@@@std@@@std@@QAE@V?$allocator@PAUHyperLink@xlslib_core@@@1@@Z
	??8?$_Vector_const_iterator@V?$_Vector_val@PAUDataValidation@xlslib_core@@V?$allocator@PAUDataValidation@xlslib_core@@@std@@@std@@@std@@QBE_NABV01@@Z
	??0?$_Vector_val@PAVboundsheet_t@xlslib_core@@V?$allocator@PAVboundsheet_t@xlslib_core@@@std@@@std@@QAE@V?$allocator@PAVboundsheet_t@xlslib_core@@@1@@Z
	??$_Cons_val@V?$allocator@PAUHyperLink@xlslib_core@@@std@@PAUHyperLink@xlslib_core@@AAPAU34@@std@@YAXAAV?$allocator@PAUHyperLink@xlslib_core@@@0@PAPAUHyperLink@xlslib_core@@AAPAU23@@Z
	??0?$_Vector_val@V?$basic_string@_WU?$char_traits@_W@std@@V?$allocator@_W@2@@std@@V?$allocator@V?$basic_string@_WU?$char_traits@_W@std@@V?$allocator@_W@2@@std@@@2@@std@@QAE@V?$allocator@V?$basic_string@_WU?$char_traits@_W@std@@V?$allocator@_W@2@@std@@@1@@Z
	??0?$_Vector_val@NV?$allocator@N@std@@@std@@QAE@V?$allocator@N@1@@Z
	??0?$_Vector_val@Urowblocksize_t@xlslib_core@@V?$allocator@Urowblocksize_t@xlslib_core@@@std@@@std@@QAE@V?$allocator@Urowblocksize_t@xlslib_core@@@1@@Z
	?size@?$vector@PAVCOleProp@xlslib_core@@V?$allocator@PAVCOleProp@xlslib_core@@@std@@@std@@QBEIXZ
	??0?$_Vector_val@PAUDataValidation@xlslib_core@@V?$allocator@PAUDataValidation@xlslib_core@@@std@@@std@@QAE@V?$allocator@PAUDataValidation@xlslib_core@@@1@@Z
	?lower_bound@?$_Tree@V?$_Tset_traits@PAVrowheight_t@xlslib_core@@Vrowheightsort@2@V?$allocator@PAVrowheight_t@xlslib_core@@@std@@$0A@@std@@@std@@QAE?AV?$_Tree_const_iterator@V?$_Tree_val@V?$_Tset_traits@PAVrowheight_t@xlslib_core@@Vrowheightsort@2@V?$allocator@PAVrowheight_t@xlslib_core@@@std@@$0A@@std@@@std@@@2@ABQAVrowheight_t@xlslib_core@@@Z
	?_Rrotate@?$_Tree@V?$_Tset_traits@PAVHPSFitem@xlslib_core@@Vinsertsort2@2@V?$allocator@PAVHPSFitem@xlslib_core@@@std@@$0A@@std@@@std@@IAEXPAU_Node@?$_Tree_nod@V?$_Tset_traits@PAVHPSFitem@xlslib_core@@Vinsertsort2@2@V?$allocator@PAVHPSFitem@xlslib_core@@@std@@$0A@@std@@@2@@Z
	?_Rrotate@?$_Tree@V?$_Tset_traits@PAVrowheight_t@xlslib_core@@Vrowheightsort@2@V?$allocator@PAVrowheight_t@xlslib_core@@@std@@$0A@@std@@@std@@IAEXPAU_Node@?$_Tree_nod@V?$_Tset_traits@PAVrowheight_t@xlslib_core@@Vrowheightsort@2@V?$allocator@PAVrowheight_t@xlslib_core@@@std@@$0A@@std@@@2@@Z
	??1?$_Tree_val@V?$_Tset_traits@PAVHPSFitem@xlslib_core@@Vinsertsort2@2@V?$allocator@PAVHPSFitem@xlslib_core@@@std@@$0A@@std@@@std@@QAE@XZ
	?clear@?$list@PAV?$basic_string@DU?$char_traits@D@std@@V?$allocator@D@2@@std@@V?$allocator@PAV?$basic_string@DU?$char_traits@D@std@@V?$allocator@D@2@@std@@@2@@std@@QAEXXZ
	??1?$_Tree_val@V?$_Tset_traits@PAVrowheight_t@xlslib_core@@Vrowheightsort@2@V?$allocator@PAVrowheight_t@xlslib_core@@@std@@$0A@@std@@@std@@QAE@XZ
	??1?$_Tree_val@V?$_Tset_traits@U?$pair@PAVxf_t@xlslib_core@@UborderedXft@2@@std@@VxfSorter@xlslib_core@@V?$allocator@U?$pair@PAVxf_t@xlslib_core@@UborderedXft@2@@std@@@2@$0A@@std@@@std@@QAE@XZ
	?AddUnicodeString@CUnit@xlslib_core@@QAEDAAVCGlobalRecords@2@ABV?$basic_string@DU?$char_traits@D@std@@V?$allocator@D@2@@std@@W4XlsUnicodeStringFormat_t@12@@Z
	?deallocate@?$allocator@PAVCOleProp@xlslib_core@@@std@@QAEXPAPAVCOleProp@xlslib_core@@I@Z
	?deallocate@?$allocator@PAUstyle_t@xlslib_core@@@std@@QAEXPAPAUstyle_t@xlslib_core@@I@Z
	?deallocate@?$allocator@V?$basic_string@_WU?$char_traits@_W@std@@V?$allocator@_W@2@@std@@@std@@QAEXPAV?$basic_string@_WU?$char_traits@_W@std@@V?$allocator@_W@2@@2@I@Z
	?_Right@?$_Tree_val@V?$_Tset_traits@PAUcolinfo_t@xlslib_core@@Vcolinfosort@2@V?$allocator@PAUcolinfo_t@xlslib_core@@@std@@$0A@@std@@@std@@SAAAPAU_Node@?$_Tree_nod@V?$_Tset_traits@PAUcolinfo_t@xlslib_core@@Vcolinfosort@2@V?$allocator@PAUcolinfo_t@xlslib_core@@@std@@$0A@@std@@@2@PAU342@@Z
	?deallocate@?$allocator@V?$basic_string@DU?$char_traits@D@std@@V?$allocator@D@2@@std@@@std@@QAEXPAV?$basic_string@DU?$char_traits@D@std@@V?$allocator@D@2@@2@I@Z
	?deallocate@?$allocator@N@std@@QAEXPANI@Z
	?deallocate@?$allocator@U_Node@?$_Tree_nod@V?$_Tset_traits@PAVcell_t@xlslib_core@@Vinsertsort@2@V?$allocator@PAVcell_t@xlslib_core@@@std@@$0A@@std@@@std@@@std@@QAEXPAU_Node@?$_Tree_nod@V?$_Tset_traits@PAVcell_t@xlslib_core@@Vinsertsort@2@V?$allocator@PAVcell_t@xlslib_core@@@std@@$0A@@std@@@2@I@Z
	?npos@?$basic_string@_WU?$char_traits@_W@std@@V?$allocator@_W@2@@std@@2IB
	?SetValueAt32@CUnit@xlslib_core@@QAEDII@Z
	?deallocate@?$allocator@PBVlabel_t@xlslib_core@@@std@@QAEXPAPBVlabel_t@xlslib_core@@I@Z
	?deallocate@?$allocator@PAUHyperLink@xlslib_core@@@std@@QAEXPAPAUHyperLink@xlslib_core@@I@Z
	?deallocate@?$allocator@VCUnitStore@xlslib_core@@@std@@QAEXPAVCUnitStore@xlslib_core@@I@Z
	??$_Construct@PAUstyle_t@xlslib_core@@ABQAU12@@std@@YAXPAPAUstyle_t@xlslib_core@@ABQAU12@@Z
	?deallocate@?$allocator@Urowblocksize_t@xlslib_core@@@std@@QAEXPAUrowblocksize_t@xlslib_core@@I@Z
	?deallocate@?$allocator@PAUDataValidation@xlslib_core@@@std@@QAEXPAPAUDataValidation@xlslib_core@@I@Z
	?deallocate@?$allocator@U_Node@?$_List_nod@PAV?$basic_string@DU?$char_traits@D@std@@V?$allocator@D@2@@std@@V?$allocator@PAV?$basic_string@DU?$char_traits@D@std@@V?$allocator@D@2@@std@@@2@@std@@@std@@QAEXPAU_Node@?$_List_nod@PAV?$basic_string@DU?$char_traits@D@std@@V?$allocator@D@2@@std@@V?$allocator@PAV?$basic_string@DU?$char_traits@D@std@@V?$allocator@D@2@@std@@@2@@2@I@Z
	?append@?$basic_string@DU?$char_traits@D@std@@V?$allocator@D@2@@std@@QAEAAV12@PBD@Z
	?deallocate@?$allocator@PAVxf_t@xlslib_core@@@std@@QAEXPAPAVxf_t@xlslib_core@@I@Z
	?deallocate@?$allocator@U_Node@?$_Tree_nod@V?$_Tset_traits@U?$pair@PAVxf_t@xlslib_core@@UborderedXft@2@@std@@VxfSorter@xlslib_core@@V?$allocator@U?$pair@PAVxf_t@xlslib_core@@UborderedXft@2@@std@@@2@$0A@@std@@@std@@@std@@QAEXPAU_Node@?$_Tree_nod@V?$_Tset_traits@U?$pair@PAVxf_t@xlslib_core@@UborderedXft@2@@std@@VxfSorter@xlslib_core@@V?$allocator@U?$pair@PAVxf_t@xlslib_core@@UborderedXft@2@@std@@@2@$0A@@std@@@2@I@Z
	?deallocate@?$allocator@D@std@@QAEXPADI@Z
	?_Erase@?$_Tree@V?$_Tset_traits@PAUcolinfo_t@xlslib_core@@Vcolinfosort@2@V?$allocator@PAUcolinfo_t@xlslib_core@@@std@@$0A@@std@@@std@@IAEXPAU_Node@?$_Tree_nod@V?$_Tset_traits@PAUcolinfo_t@xlslib_core@@Vcolinfosort@2@V?$allocator@PAUcolinfo_t@xlslib_core@@@std@@$0A@@std@@@2@@Z
	?_Erase@?$_Tree@V?$_Tset_traits@PAVrowheight_t@xlslib_core@@Vrowheightsort@2@V?$allocator@PAVrowheight_t@xlslib_core@@@std@@$0A@@std@@@std@@IAEXPAU_Node@?$_Tree_nod@V?$_Tset_traits@PAVrowheight_t@xlslib_core@@Vrowheightsort@2@V?$allocator@PAVrowheight_t@xlslib_core@@@std@@$0A@@std@@@2@@Z
	?_Tidy@?$_Tree@V?$_Tset_traits@PAVcell_t@xlslib_core@@Vinsertsort@2@V?$allocator@PAVcell_t@xlslib_core@@@std@@$0A@@std@@@std@@IAEXXZ
	??$_Umove@PAPAVCOleProp@xlslib_core@@@?$vector@PAVCOleProp@xlslib_core@@V?$allocator@PAVCOleProp@xlslib_core@@@std@@@std@@IAEPAPAVCOleProp@xlslib_core@@PAPAV23@00@Z
	?_Tidy@?$_Tree@V?$_Tset_traits@PAUcolinfo_t@xlslib_core@@Vcolinfosort@2@V?$allocator@PAUcolinfo_t@xlslib_core@@@std@@$0A@@std@@@std@@IAEXXZ
	?_Isnil@?$_Tree_val@V?$_Tset_traits@PAVrowheight_t@xlslib_core@@Vrowheightsort@2@V?$allocator@PAVrowheight_t@xlslib_core@@@std@@$0A@@std@@@std@@SAAADPAU_Node@?$_Tree_nod@V?$_Tset_traits@PAVrowheight_t@xlslib_core@@Vrowheightsort@2@V?$allocator@PAVrowheight_t@xlslib_core@@@std@@$0A@@std@@@2@@Z
	?_Isnil@?$_Tree_val@V?$_Tset_traits@PAUcolinfo_t@xlslib_core@@Vcolinfosort@2@V?$allocator@PAUcolinfo_t@xlslib_core@@@std@@$0A@@std@@@std@@SAAADPAU_Node@?$_Tree_nod@V?$_Tset_traits@PAUcolinfo_t@xlslib_core@@Vcolinfosort@2@V?$allocator@PAUcolinfo_t@xlslib_core@@@std@@$0A@@std@@@2@@Z
	?_Max@?$_Tree_val@V?$_Tset_traits@PAVcell_t@xlslib_core@@Vinsertsort@2@V?$allocator@PAVcell_t@xlslib_core@@@std@@$0A@@std@@@std@@SAPAU_Node@?$_Tree_nod@V?$_Tset_traits@PAVcell_t@xlslib_core@@Vinsertsort@2@V?$allocator@PAVcell_t@xlslib_core@@@std@@$0A@@std@@@2@PAU342@@Z
	?size@?$vector@PAVformula_t@xlslib_core@@V?$allocator@PAVformula_t@xlslib_core@@@std@@@std@@QBEIXZ
	?_Max@?$_Tree_val@V?$_Tset_traits@PAVrowheight_t@xlslib_core@@Vrowheightsort@2@V?$allocator@PAVrowheight_t@xlslib_core@@@std@@$0A@@std@@@std@@SAPAU_Node@?$_Tree_nod@V?$_Tset_traits@PAVrowheight_t@xlslib_core@@Vrowheightsort@2@V?$allocator@PAVrowheight_t@xlslib_core@@@std@@$0A@@std@@@2@PAU342@@Z
	?erase@?$vector@Urowblocksize_t@xlslib_core@@V?$allocator@Urowblocksize_t@xlslib_core@@@std@@@std@@QAE?AV?$_Vector_iterator@V?$_Vector_val@Urowblocksize_t@xlslib_core@@V?$allocator@Urowblocksize_t@xlslib_core@@@std@@@std@@@2@V?$_Vector_const_iterator@V?$_Vector_val@Urowblocksize_t@xlslib_core@@V?$allocator@Urowblocksize_t@xlslib_core@@@std@@@std@@@2@0@Z
	?size@?$vector@PAVCUnit@xlslib_core@@V?$allocator@PAVCUnit@xlslib_core@@@std@@@std@@QBEIXZ
	?_Reserve@?$vector@Urowblocksize_t@xlslib_core@@V?$allocator@Urowblocksize_t@xlslib_core@@@std@@@std@@IAEXI@Z
	?_Reserve@?$vector@PAVfont_t@xlslib_core@@V?$allocator@PAVfont_t@xlslib_core@@@std@@@std@@IAEXI@Z
	?_Reserve@?$vector@PAVrange@xlslib_core@@V?$allocator@PAVrange@xlslib_core@@@std@@@std@@IAEXI@Z
	??E?$_Tree_const_iterator@V?$_Tree_val@V?$_Tset_traits@PAVHPSFitem@xlslib_core@@Vinsertsort2@2@V?$allocator@PAVHPSFitem@xlslib_core@@@std@@$0A@@std@@@std@@@std@@QAEAAV01@XZ
	?_Reserve@?$vector@PAVCOleProp@xlslib_core@@V?$allocator@PAVCOleProp@xlslib_core@@@std@@@std@@IAEXI@Z
	?_Reserve@?$vector@PAVboundsheet_t@xlslib_core@@V?$allocator@PAVboundsheet_t@xlslib_core@@@std@@@std@@IAEXI@Z
	?_Reserve@?$vector@IV?$allocator@I@std@@@std@@IAEXI@Z
	?_Reserve@?$vector@PAVworksheet@xlslib_core@@V?$allocator@PAVworksheet@xlslib_core@@@std@@@std@@IAEXI@Z
	?_Reserve@?$vector@PAVformula_t@xlslib_core@@V?$allocator@PAVformula_t@xlslib_core@@@std@@@std@@IAEXI@Z
	?_Reserve@?$vector@PAVxf_t@xlslib_core@@V?$allocator@PAVxf_t@xlslib_core@@@std@@@std@@IAEXI@Z
	?_Reserve@?$vector@PBVlabel_t@xlslib_core@@V?$allocator@PBVlabel_t@xlslib_core@@@std@@@std@@IAEXI@Z
	??E?$_Tree_const_iterator@V?$_Tree_val@V?$_Tset_traits@PAVrowheight_t@xlslib_core@@Vrowheightsort@2@V?$allocator@PAVrowheight_t@xlslib_core@@@std@@$0A@@std@@@std@@@std@@QAEAAV01@XZ
	??E?$_Tree_const_iterator@V?$_Tree_val@V?$_Tset_traits@PAUcolinfo_t@xlslib_core@@Vcolinfosort@2@V?$allocator@PAUcolinfo_t@xlslib_core@@@std@@$0A@@std@@@std@@@std@@QAEAAV01@XZ
	??E?$_Tree_const_iterator@V?$_Tree_val@V?$_Tset_traits@PAVcell_t@xlslib_core@@Vinsertsort@2@V?$allocator@PAVcell_t@xlslib_core@@@std@@$0A@@std@@@std@@@std@@QAEAAV01@XZ
	??F?$_Tree_unchecked_const_iterator@V?$_Tree_val@V?$_Tset_traits@PAVrowheight_t@xlslib_core@@Vrowheightsort@2@V?$allocator@PAVrowheight_t@xlslib_core@@@std@@$0A@@std@@@std@@U_Iterator_base0@2@@std@@QAEAAV01@XZ
	??F?$_Tree_unchecked_const_iterator@V?$_Tree_val@V?$_Tset_traits@PAVcell_t@xlslib_core@@Vinsertsort@2@V?$allocator@PAVcell_t@xlslib_core@@@std@@$0A@@std@@@std@@U_Iterator_base0@2@@std@@QAEAAV01@XZ
	??F?$_Tree_unchecked_const_iterator@V?$_Tree_val@V?$_Tset_traits@PAVHPSFitem@xlslib_core@@Vinsertsort2@2@V?$allocator@PAVHPSFitem@xlslib_core@@@std@@$0A@@std@@@std@@U_Iterator_base0@2@@std@@QAEAAV01@XZ
	??8?$_Vector_const_iterator@V?$_Vector_val@PAVformat_t@xlslib_core@@V?$allocator@PAVformat_t@xlslib_core@@@std@@@std@@@std@@QBE_NABV01@@Z
	??8?$_Vector_const_iterator@V?$_Vector_val@PAUstyle_t@xlslib_core@@V?$allocator@PAUstyle_t@xlslib_core@@@std@@@std@@@std@@QBE_NABV01@@Z
	??8?$_Tree_const_iterator@V?$_Tree_val@V?$_Tset_traits@PAVcell_t@xlslib_core@@Vinsertsort@2@V?$allocator@PAVcell_t@xlslib_core@@@std@@$0A@@std@@@std@@@std@@QBE_NABV01@@Z
	??8?$_Tree_const_iterator@V?$_Tree_val@V?$_Tset_traits@PAVrowheight_t@xlslib_core@@Vrowheightsort@2@V?$allocator@PAVrowheight_t@xlslib_core@@@std@@$0A@@std@@@std@@@std@@QBE_NABV01@@Z
	??8?$_Vector_const_iterator@V?$_Vector_val@Urowblocksize_t@xlslib_core@@V?$allocator@Urowblocksize_t@xlslib_core@@@std@@@std@@@std@@QBE_NABV01@@Z
	??8?$_Vector_const_iterator@V?$_Vector_val@PAVfont_t@xlslib_core@@V?$allocator@PAVfont_t@xlslib_core@@@std@@@std@@@std@@QBE_NABV01@@Z
	??$_Umove@PAPAVrange_t@xlslib_core@@@?$vector@PAVrange_t@xlslib_core@@V?$allocator@PAVrange_t@xlslib_core@@@std@@@std@@IAEPAPAVrange_t@xlslib_core@@PAPAV23@00@Z
	??8?$_Vector_const_iterator@V?$_Vector_val@PAVboundsheet_t@xlslib_core@@V?$allocator@PAVboundsheet_t@xlslib_core@@@std@@@std@@@std@@QBE_NABV01@@Z
	??8?$_Vector_const_iterator@V?$_Vector_val@IV?$allocator@I@std@@@std@@@std@@QBE_NABV01@@Z
	??8?$_Vector_const_iterator@V?$_Vector_val@PAVrange_t@xlslib_core@@V?$allocator@PAVrange_t@xlslib_core@@@std@@@std@@@std@@QBE_NABV01@@Z
	?oct@?$_Iosb@H@std@@2W4_Fmtflags@12@B
	??8?$_Vector_const_iterator@V?$_Vector_val@PAVformula_t@xlslib_core@@V?$allocator@PAVformula_t@xlslib_core@@@std@@@std@@@std@@QBE_NABV01@@Z
	??8?$_Vector_const_iterator@V?$_Vector_val@PAVxf_t@xlslib_core@@V?$allocator@PAVxf_t@xlslib_core@@@std@@@std@@@std@@QBE_NABV01@@Z
	??8?$_Vector_const_iterator@V?$_Vector_val@PAUHyperLink@xlslib_core@@V?$allocator@PAUHyperLink@xlslib_core@@@std@@@std@@@std@@QBE_NABV01@@Z
	??8?$_Vector_const_iterator@V?$_Vector_val@PAVCUnit@xlslib_core@@V?$allocator@PAVCUnit@xlslib_core@@@std@@@std@@@std@@QBE_NABV01@@Z
	??F?$_Vector_const_iterator@V?$_Vector_val@PAVCUnit@xlslib_core@@V?$allocator@PAVCUnit@xlslib_core@@@std@@@std@@@std@@QAEAAV01@XZ
	?Init@COleProp@xlslib_core@@QAEHHABV?$basic_string@DU?$char_traits@D@std@@V?$allocator@D@2@@std@@PAVCDataStorage@2@@Z
	?erase@?$_Tree@V?$_Tset_traits@PAVrowheight_t@xlslib_core@@Vrowheightsort@2@V?$allocator@PAVrowheight_t@xlslib_core@@@std@@$0A@@std@@@std@@QAE?AV?$_Tree_const_iterator@V?$_Tree_val@V?$_Tset_traits@PAVrowheight_t@xlslib_core@@Vrowheightsort@2@V?$allocator@PAVrowheight_t@xlslib_core@@@std@@$0A@@std@@@std@@@2@V32@@Z
	??8?$_String_const_iterator@_WU?$char_traits@_W@std@@V?$allocator@_W@2@@std@@QBE_NABV01@@Z
	?_Make_iter@?$vector@VCUnitStore@xlslib_core@@V?$allocator@VCUnitStore@xlslib_core@@@std@@@std@@QBE?AV?$_Vector_iterator@V?$_Vector_val@VCUnitStore@xlslib_core@@V?$allocator@VCUnitStore@xlslib_core@@@std@@@std@@@2@V?$_Vector_const_iterator@V?$_Vector_val@VCUnitStore@xlslib_core@@V?$allocator@VCUnitStore@xlslib_core@@@std@@@std@@@2@@Z
	?time@?$_Locbase@H@std@@2HB
	?erase@?$_Tree@V?$_Tset_traits@PAVcell_t@xlslib_core@@Vinsertsort@2@V?$allocator@PAVcell_t@xlslib_core@@@std@@$0A@@std@@@std@@QAE?AV?$_Tree_const_iterator@V?$_Tree_val@V?$_Tset_traits@PAVcell_t@xlslib_core@@Vinsertsort@2@V?$allocator@PAVcell_t@xlslib_core@@@std@@$0A@@std@@@std@@@2@V32@@Z
	?_Eqrange@?$_Tree@V?$_Tset_traits@PAVcell_t@xlslib_core@@Vinsertsort@2@V?$allocator@PAVcell_t@xlslib_core@@@std@@$0A@@std@@@std@@IAE?AU?$pair@V?$_Tree_const_iterator@V?$_Tree_val@V?$_Tset_traits@PAVcell_t@xlslib_core@@Vinsertsort@2@V?$allocator@PAVcell_t@xlslib_core@@@std@@$0A@@std@@@std@@@std@@V12@@2@ABQAVcell_t@xlslib_core@@@Z
	??$_Ptr_cat@PAVrange_t@xlslib_core@@PAV12@@std@@YA?AU_Scalar_ptr_iterator_tag@0@PAPAVrange_t@xlslib_core@@0@Z
	?_Lbound@?$_Tree@V?$_Tset_traits@PAVcell_t@xlslib_core@@Vinsertsort@2@V?$allocator@PAVcell_t@xlslib_core@@@std@@$0A@@std@@@std@@IBEPAU_Node@?$_Tree_nod@V?$_Tset_traits@PAVcell_t@xlslib_core@@Vinsertsort@2@V?$allocator@PAVcell_t@xlslib_core@@@std@@$0A@@std@@@2@ABQAVcell_t@xlslib_core@@@Z
	?GetName@font_t@xlslib_core@@QBEABV?$basic_string@DU?$char_traits@D@std@@V?$allocator@D@2@@std@@XZ
	?GetXFshadow@xf_t@xlslib_core@@ABEABVxf_init_t@2@XZ
	?erase@?$_Tree@V?$_Tset_traits@PAVcell_t@xlslib_core@@Vinsertsort@2@V?$allocator@PAVcell_t@xlslib_core@@@std@@$0A@@std@@@std@@QAE?AV?$_Tree_const_iterator@V?$_Tree_val@V?$_Tset_traits@PAVcell_t@xlslib_core@@Vinsertsort@2@V?$allocator@PAVcell_t@xlslib_core@@@std@@$0A@@std@@@std@@@2@V32@0@Z
	?erase@?$_Tree@V?$_Tset_traits@PAVrowheight_t@xlslib_core@@Vrowheightsort@2@V?$allocator@PAVrowheight_t@xlslib_core@@@std@@$0A@@std@@@std@@QAE?AV?$_Tree_const_iterator@V?$_Tree_val@V?$_Tset_traits@PAVrowheight_t@xlslib_core@@Vrowheightsort@2@V?$allocator@PAVrowheight_t@xlslib_core@@@std@@$0A@@std@@@std@@@2@V32@0@Z
	?erase@?$_Tree@V?$_Tset_traits@PAUcolinfo_t@xlslib_core@@Vcolinfosort@2@V?$allocator@PAUcolinfo_t@xlslib_core@@@std@@$0A@@std@@@std@@QAE?AV?$_Tree_const_iterator@V?$_Tree_val@V?$_Tset_traits@PAUcolinfo_t@xlslib_core@@Vcolinfosort@2@V?$allocator@PAUcolinfo_t@xlslib_core@@@std@@$0A@@std@@@std@@@2@V32@0@Z
	?capacity@?$vector@Urowblocksize_t@xlslib_core@@V?$allocator@Urowblocksize_t@xlslib_core@@@std@@@std@@QBEIXZ
	?_Make_iter@?$vector@IV?$allocator@I@std@@@std@@QBE?AV?$_Vector_iterator@V?$_Vector_val@IV?$allocator@I@std@@@std@@@2@V?$_Vector_const_iterator@V?$_Vector_val@IV?$allocator@I@std@@@std@@@2@@Z
	?_Make_iter@?$vector@PAUHyperLink@xlslib_core@@V?$allocator@PAUHyperLink@xlslib_core@@@std@@@std@@QBE?AV?$_Vector_iterator@V?$_Vector_val@PAUHyperLink@xlslib_core@@V?$allocator@PAUHyperLink@xlslib_core@@@std@@@std@@@2@V?$_Vector_const_iterator@V?$_Vector_val@PAUHyperLink@xlslib_core@@V?$allocator@PAUHyperLink@xlslib_core@@@std@@@std@@@2@@Z
	?_Make_iter@?$vector@PAVrange@xlslib_core@@V?$allocator@PAVrange@xlslib_core@@@std@@@std@@QBE?AV?$_Vector_iterator@V?$_Vector_val@PAVrange@xlslib_core@@V?$allocator@PAVrange@xlslib_core@@@std@@@std@@@2@V?$_Vector_const_iterator@V?$_Vector_val@PAVrange@xlslib_core@@V?$allocator@PAVrange@xlslib_core@@@std@@@std@@@2@@Z
	?_Make_iter@?$vector@PAVfont_t@xlslib_core@@V?$allocator@PAVfont_t@xlslib_core@@@std@@@std@@QBE?AV?$_Vector_iterator@V?$_Vector_val@PAVfont_t@xlslib_core@@V?$allocator@PAVfont_t@xlslib_core@@@std@@@std@@@2@V?$_Vector_const_iterator@V?$_Vector_val@PAVfont_t@xlslib_core@@V?$allocator@PAVfont_t@xlslib_core@@@std@@@std@@@2@@Z
	?_Make_iter@?$vector@PBVlabel_t@xlslib_core@@V?$allocator@PBVlabel_t@xlslib_core@@@std@@@std@@QBE?AV?$_Vector_iterator@V?$_Vector_val@PBVlabel_t@xlslib_core@@V?$allocator@PBVlabel_t@xlslib_core@@@std@@@std@@@2@V?$_Vector_const_iterator@V?$_Vector_val@PBVlabel_t@xlslib_core@@V?$allocator@PBVlabel_t@xlslib_core@@@std@@@std@@@2@@Z
	?_Make_iter@?$vector@PAUstyle_t@xlslib_core@@V?$allocator@PAUstyle_t@xlslib_core@@@std@@@std@@QBE?AV?$_Vector_iterator@V?$_Vector_val@PAUstyle_t@xlslib_core@@V?$allocator@PAUstyle_t@xlslib_core@@@std@@@std@@@2@V?$_Vector_const_iterator@V?$_Vector_val@PAUstyle_t@xlslib_core@@V?$allocator@PAUstyle_t@xlslib_core@@@std@@@std@@@2@@Z
	?_Make_iter@?$vector@PAVformat_t@xlslib_core@@V?$allocator@PAVformat_t@xlslib_core@@@std@@@std@@QBE?AV?$_Vector_iterator@V?$_Vector_val@PAVformat_t@xlslib_core@@V?$allocator@PAVformat_t@xlslib_core@@@std@@@std@@@2@V?$_Vector_const_iterator@V?$_Vector_val@PAVformat_t@xlslib_core@@V?$allocator@PAVformat_t@xlslib_core@@@std@@@std@@@2@@Z
	?_Make_iter@?$vector@PAVxf_t@xlslib_core@@V?$allocator@PAVxf_t@xlslib_core@@@std@@@std@@QBE?AV?$_Vector_iterator@V?$_Vector_val@PAVxf_t@xlslib_core@@V?$allocator@PAVxf_t@xlslib_core@@@std@@@std@@@2@V?$_Vector_const_iterator@V?$_Vector_val@PAVxf_t@xlslib_core@@V?$allocator@PAVxf_t@xlslib_core@@@std@@@std@@@2@@Z
	?_Grow_to@?$vector@Urowblocksize_t@xlslib_core@@V?$allocator@Urowblocksize_t@xlslib_core@@@std@@@std@@IBEII@Z
	?size@?$vector@PAVformat_t@xlslib_core@@V?$allocator@PAVformat_t@xlslib_core@@@std@@@std@@QBEIXZ
	?OLE_FILETYPE@COleDoc@xlslib_core@@0QBEB
	?size@?$vector@PBVlabel_t@xlslib_core@@V?$allocator@PBVlabel_t@xlslib_core@@@std@@@std@@QBEIXZ
	?size@?$vector@PAUHyperLink@xlslib_core@@V?$allocator@PAUHyperLink@xlslib_core@@@std@@@std@@QBEIXZ
	?size@?$vector@PAUDataValidation@xlslib_core@@V?$allocator@PAUDataValidation@xlslib_core@@@std@@@std@@QBEIXZ
	?size@?$vector@PAVfont_t@xlslib_core@@V?$allocator@PAVfont_t@xlslib_core@@@std@@@std@@QBEIXZ
	??E?$_Tree_unchecked_const_iterator@V?$_Tree_val@V?$_Tset_traits@PAVrowheight_t@xlslib_core@@Vrowheightsort@2@V?$allocator@PAVrowheight_t@xlslib_core@@@std@@$0A@@std@@@std@@U_Iterator_base0@2@@std@@QAEAAV01@XZ
	??E?$_Tree_unchecked_const_iterator@V?$_Tree_val@V?$_Tset_traits@PAVcell_t@xlslib_core@@Vinsertsort@2@V?$allocator@PAVcell_t@xlslib_core@@@std@@$0A@@std@@@std@@U_Iterator_base0@2@@std@@QAEAAV01@XZ
	??E?$_Tree_unchecked_const_iterator@V?$_Tree_val@V?$_Tset_traits@PAUcolinfo_t@xlslib_core@@Vcolinfosort@2@V?$allocator@PAUcolinfo_t@xlslib_core@@@std@@$0A@@std@@@std@@U_Iterator_base0@2@@std@@QAEAAV01@XZ
	??E?$_Vector_const_iterator@V?$_Vector_val@Urowblocksize_t@xlslib_core@@V?$allocator@Urowblocksize_t@xlslib_core@@@std@@@std@@@std@@QAEAAV01@XZ
	??E?$_Vector_iterator@V?$_Vector_val@Urowblocksize_t@xlslib_core@@V?$allocator@Urowblocksize_t@xlslib_core@@@std@@@std@@@std@@QAEAAV01@XZ
	?_Lrotate@?$_Tree@V?$_Tset_traits@PAVrowheight_t@xlslib_core@@Vrowheightsort@2@V?$allocator@PAVrowheight_t@xlslib_core@@@std@@$0A@@std@@@std@@IAEXPAU_Node@?$_Tree_nod@V?$_Tset_traits@PAVrowheight_t@xlslib_core@@Vrowheightsort@2@V?$allocator@PAVrowheight_t@xlslib_core@@@std@@$0A@@std@@@2@@Z
	?_Lrotate@?$_Tree@V?$_Tset_traits@PAVHPSFitem@xlslib_core@@Vinsertsort2@2@V?$allocator@PAVHPSFitem@xlslib_core@@@std@@$0A@@std@@@std@@IAEXPAU_Node@?$_Tree_nod@V?$_Tset_traits@PAVHPSFitem@xlslib_core@@Vinsertsort2@2@V?$allocator@PAVHPSFitem@xlslib_core@@@std@@$0A@@std@@@2@@Z
	?_Min@?$_Tree_val@V?$_Tset_traits@PAVHPSFitem@xlslib_core@@Vinsertsort2@2@V?$allocator@PAVHPSFitem@xlslib_core@@@std@@$0A@@std@@@std@@SAPAU_Node@?$_Tree_nod@V?$_Tset_traits@PAVHPSFitem@xlslib_core@@Vinsertsort2@2@V?$allocator@PAVHPSFitem@xlslib_core@@@std@@$0A@@std@@@2@PAU342@@Z
	?_Min@?$_Tree_val@V?$_Tset_traits@PAVrowheight_t@xlslib_core@@Vrowheightsort@2@V?$allocator@PAVrowheight_t@xlslib_core@@@std@@$0A@@std@@@std@@SAPAU_Node@?$_Tree_nod@V?$_Tset_traits@PAVrowheight_t@xlslib_core@@Vrowheightsort@2@V?$allocator@PAVrowheight_t@xlslib_core@@@std@@$0A@@std@@@2@PAU342@@Z
	?allocate@?$allocator@U_Node@?$_Tree_nod@V?$_Tset_traits@PAVHPSFitem@xlslib_core@@Vinsertsort2@2@V?$allocator@PAVHPSFitem@xlslib_core@@@std@@$0A@@std@@@std@@@std@@QAEPAU_Node@?$_Tree_nod@V?$_Tset_traits@PAVHPSFitem@xlslib_core@@Vinsertsort2@2@V?$allocator@PAVHPSFitem@xlslib_core@@@std@@$0A@@std@@@2@I@Z
	?allocate@?$allocator@Urowblocksize_t@xlslib_core@@@std@@QAEPAUrowblocksize_t@xlslib_core@@I@Z
	?max_size@?$allocator@Urowblocksize_t@xlslib_core@@@std@@QBEIXZ
	?max_size@?$vector@Urowblocksize_t@xlslib_core@@V?$allocator@Urowblocksize_t@xlslib_core@@@std@@@std@@QBEIXZ
	?allocate@?$allocator@PAUstyle_t@xlslib_core@@@std@@QAEPAPAUstyle_t@xlslib_core@@I@Z
	?allocate@?$allocator@PAVrange_t@xlslib_core@@@std@@QAEPAPAVrange_t@xlslib_core@@I@Z
	?allocate@?$allocator@PAVworksheet@xlslib_core@@@std@@QAEPAPAVworksheet@xlslib_core@@I@Z
	?allocate@?$allocator@PAVrange@xlslib_core@@@std@@QAEPAPAVrange@xlslib_core@@I@Z
	?allocate@?$allocator@PAVCOleProp@xlslib_core@@@std@@QAEPAPAVCOleProp@xlslib_core@@I@Z
	?allocate@?$allocator@PAVCUnit@xlslib_core@@@std@@QAEPAPAVCUnit@xlslib_core@@I@Z
	?allocate@?$allocator@PAVfont_t@xlslib_core@@@std@@QAEPAPAVfont_t@xlslib_core@@I@Z
	?allocate@?$allocator@PAVxf_t@xlslib_core@@@std@@QAEPAPAVxf_t@xlslib_core@@I@Z
	?allocate@?$allocator@PAVboundsheet_t@xlslib_core@@@std@@QAEPAPAVboundsheet_t@xlslib_core@@I@Z
	??$insert@AAPAVcell_t@xlslib_core@@@?$_Tree@V?$_Tset_traits@PAVcell_t@xlslib_core@@Vinsertsort@2@V?$allocator@PAVcell_t@xlslib_core@@@std@@$0A@@std@@@std@@QAE?AU?$pair@V?$_Tree_const_iterator@V?$_Tree_val@V?$_Tset_traits@PAVcell_t@xlslib_core@@Vinsertsort@2@V?$allocator@PAVcell_t@xlslib_core@@@std@@$0A@@std@@@std@@@std@@_N@1@AAPAVcell_t@xlslib_core@@@Z
	??$insert@AAPAUcolinfo_t@xlslib_core@@@?$_Tree@V?$_Tset_traits@PAUcolinfo_t@xlslib_core@@Vcolinfosort@2@V?$allocator@PAUcolinfo_t@xlslib_core@@@std@@$0A@@std@@@std@@QAE?AU?$pair@V?$_Tree_const_iterator@V?$_Tree_val@V?$_Tset_traits@PAUcolinfo_t@xlslib_core@@Vcolinfosort@2@V?$allocator@PAUcolinfo_t@xlslib_core@@@std@@$0A@@std@@@std@@@std@@_N@1@AAPAUcolinfo_t@xlslib_core@@@Z
	??$insert@AAPAVrowheight_t@xlslib_core@@@?$_Tree@V?$_Tset_traits@PAVrowheight_t@xlslib_core@@Vrowheightsort@2@V?$allocator@PAVrowheight_t@xlslib_core@@@std@@$0A@@std@@@std@@QAE?AU?$pair@V?$_Tree_const_iterator@V?$_Tree_val@V?$_Tset_traits@PAVrowheight_t@xlslib_core@@Vrowheightsort@2@V?$allocator@PAVrowheight_t@xlslib_core@@@std@@$0A@@std@@@std@@@std@@_N@1@AAPAVrowheight_t@xlslib_core@@@Z
	??$_Distance@V?$_Tree_const_iterator@V?$_Tree_val@V?$_Tset_traits@PAVHPSFitem@xlslib_core@@Vinsertsort2@2@V?$allocator@PAVHPSFitem@xlslib_core@@@std@@$0A@@std@@@std@@@std@@I@std@@YAXV?$_Tree_const_iterator@V?$_Tree_val@V?$_Tset_traits@PAVHPSFitem@xlslib_core@@Vinsertsort2@2@V?$allocator@PAVHPSFitem@xlslib_core@@@std@@$0A@@std@@@std@@@0@0AAI@Z
	??$_Cons_val@V?$allocator@PAVboundsheet_t@xlslib_core@@@std@@PAVboundsheet_t@xlslib_core@@AAPAV34@@std@@YAXAAV?$allocator@PAVboundsheet_t@xlslib_core@@@0@PAPAVboundsheet_t@xlslib_core@@AAPAV23@@Z
	?construct@?$allocator@I@std@@QAEXPAI$$QAI@Z
	??$_Cons_val@V?$allocator@I@std@@II@std@@YAXAAV?$allocator@I@0@PAI$$QAI@Z
	??$construct@AAPAVCUnit@xlslib_core@@@?$allocator@PAVCUnit@xlslib_core@@@std@@QAEXPAPAVCUnit@xlslib_core@@AAPAV23@@Z
	?construct@?$allocator@PAVCOleProp@xlslib_core@@@std@@QAEXPAPAVCOleProp@xlslib_core@@ABQAV34@@Z
	??$_Cons_val@V?$allocator@PAVrange@xlslib_core@@@std@@PAVrange@xlslib_core@@AAPAV34@@std@@YAXAAV?$allocator@PAVrange@xlslib_core@@@0@PAPAVrange@xlslib_core@@AAPAV23@@Z
	??$_Cons_val@V?$allocator@I@std@@IABI@std@@YAXAAV?$allocator@I@0@PAIABI@Z
	??$_Cons_val@V?$allocator@PAUDataValidation@xlslib_core@@@std@@PAUDataValidation@xlslib_core@@ABQAU34@@std@@YAXAAV?$allocator@PAUDataValidation@xlslib_core@@@0@PAPAUDataValidation@xlslib_core@@ABQAU23@@Z
	??$_Construct@PAVformat_t@xlslib_core@@ABQAV12@@std@@YAXPAPAVformat_t@xlslib_core@@ABQAV12@@Z
	??$construct@AAPAVrange_t@xlslib_core@@@?$allocator@PAVrange_t@xlslib_core@@@std@@QAEXPAPAVrange_t@xlslib_core@@AAPAV23@@Z
	?construct@?$allocator@PAVfont_t@xlslib_core@@@std@@QAEXPAPAVfont_t@xlslib_core@@ABQAV34@@Z
	??$_Cons_val@V?$allocator@PAVrowheight_t@xlslib_core@@@std@@PAVrowheight_t@xlslib_core@@AAPAV34@@std@@YAXAAV?$allocator@PAVrowheight_t@xlslib_core@@@0@PAPAVrowheight_t@xlslib_core@@AAPAV23@@Z
	??$_Cons_val@V?$allocator@PAVCOleProp@xlslib_core@@@std@@PAVCOleProp@xlslib_core@@ABQAV34@@std@@YAXAAV?$allocator@PAVCOleProp@xlslib_core@@@0@PAPAVCOleProp@xlslib_core@@ABQAV23@@Z
	?_Linsert@?$_Tree@V?$_Tset_traits@PAVcell_t@xlslib_core@@Vinsertsort@2@V?$allocator@PAVcell_t@xlslib_core@@@std@@$0A@@std@@@std@@QAE?AU?$pair@V?$_Tree_const_iterator@V?$_Tree_val@V?$_Tset_traits@PAVcell_t@xlslib_core@@Vinsertsort@2@V?$allocator@PAVcell_t@xlslib_core@@@std@@$0A@@std@@@std@@@std@@_N@2@PAU_Node@?$_Tree_nod@V?$_Tset_traits@PAVcell_t@xlslib_core@@Vinsertsort@2@V?$allocator@PAVcell_t@xlslib_core@@@std@@$0A@@std@@@2@_N@Z
	??$construct@AAPAVrange@xlslib_core@@@?$allocator@PAVrange@xlslib_core@@@std@@QAEXPAPAVrange@xlslib_core@@AAPAV23@@Z
	??$_Cons_val@V?$allocator@PAVCOleProp@xlslib_core@@@std@@PAVCOleProp@xlslib_core@@AAPAV34@@std@@YAXAAV?$allocator@PAVCOleProp@xlslib_core@@@0@PAPAVCOleProp@xlslib_core@@AAPAV23@@Z
	??$construct@AAPAVformula_t@xlslib_core@@@?$allocator@PAVformula_t@xlslib_core@@@std@@QAEXPAPAVformula_t@xlslib_core@@AAPAV23@@Z
	??$construct@AAPAVformat_t@xlslib_core@@@?$allocator@PAVformat_t@xlslib_core@@@std@@QAEXPAPAVformat_t@xlslib_core@@AAPAV23@@Z
	??$construct@AAPAUDataValidation@xlslib_core@@@?$allocator@PAUDataValidation@xlslib_core@@@std@@QAEXPAPAUDataValidation@xlslib_core@@AAPAU23@@Z
	??$_Construct@PAVboundsheet_t@xlslib_core@@ABQAV12@@std@@YAXPAPAVboundsheet_t@xlslib_core@@ABQAV12@@Z
	?construct@?$allocator@PAUDataValidation@xlslib_core@@@std@@QAEXPAPAUDataValidation@xlslib_core@@ABQAU34@@Z
	??$_Cons_val@V?$allocator@PAVxf_t@xlslib_core@@@std@@PAVxf_t@xlslib_core@@AAPAV34@@std@@YAXAAV?$allocator@PAVxf_t@xlslib_core@@@0@PAPAVxf_t@xlslib_core@@AAPAV23@@Z
	??$_Cons_val@V?$allocator@PAVrange_t@xlslib_core@@@std@@PAVrange_t@xlslib_core@@ABQAV34@@std@@YAXAAV?$allocator@PAVrange_t@xlslib_core@@@0@PAPAVrange_t@xlslib_core@@ABQAV23@@Z
	??$_Cons_val@V?$allocator@PAUstyle_t@xlslib_core@@@std@@PAUstyle_t@xlslib_core@@AAPAU34@@std@@YAXAAV?$allocator@PAUstyle_t@xlslib_core@@@0@PAPAUstyle_t@xlslib_core@@AAPAU23@@Z
	??$construct@AAPAVcell_t@xlslib_core@@@?$allocator@PAVcell_t@xlslib_core@@@std@@QAEXPAPAVcell_t@xlslib_core@@AAPAV23@@Z
	?construct@?$allocator@PAV?$basic_string@DU?$char_traits@D@std@@V?$allocator@D@2@@std@@@std@@QAEXPAPAV?$basic_string@DU?$char_traits@D@std@@V?$allocator@D@2@@2@ABQAV32@@Z
	??$_Construct@PAV?$basic_string@DU?$char_traits@D@std@@V?$allocator@D@2@@std@@ABQAV12@@std@@YAXPAPAV?$basic_string@DU?$char_traits@D@std@@V?$allocator@D@2@@0@ABQAV10@@Z
	??$_Cons_val@V?$allocator@PAVcell_t@xlslib_core@@@std@@PAVcell_t@xlslib_core@@AAPAV34@@std@@YAXAAV?$allocator@PAVcell_t@xlslib_core@@@0@PAPAVcell_t@xlslib_core@@AAPAV23@@Z
	??$construct@AAPAUcolinfo_t@xlslib_core@@@?$allocator@PAUcolinfo_t@xlslib_core@@@std@@QAEXPAPAUcolinfo_t@xlslib_core@@AAPAU23@@Z
	??$?0AAV?$_Tree_const_iterator@V?$_Tree_val@V?$_Tset_traits@PAVcell_t@xlslib_core@@Vinsertsort@2@V?$allocator@PAVcell_t@xlslib_core@@@std@@$0A@@std@@@std@@@std@@AAV01@@?$pair@V?$_Tree_const_iterator@V?$_Tree_val@V?$_Tset_traits@PAVcell_t@xlslib_core@@Vinsertsort@2@V?$allocator@PAVcell_t@xlslib_core@@@std@@$0A@@std@@@std@@@std@@V12@@std@@QAE@AAV?$_Tree_const_iterator@V?$_Tree_val@V?$_Tset_traits@PAVcell_t@xlslib_core@@Vinsertsort@2@V?$allocator@PAVcell_t@xlslib_core@@@std@@$0A@@std@@@std@@@1@0@Z
	??$_Cons_val@V?$allocator@PAVCUnit@xlslib_core@@@std@@PAVCUnit@xlslib_core@@AAPAV34@@std@@YAXAAV?$allocator@PAVCUnit@xlslib_core@@@0@PAPAVCUnit@xlslib_core@@AAPAV23@@Z
	?construct@?$allocator@PAUstyle_t@xlslib_core@@@std@@QAEXPAPAUstyle_t@xlslib_core@@ABQAU34@@Z
	??$construct@AAPAUHyperLink@xlslib_core@@@?$allocator@PAUHyperLink@xlslib_core@@@std@@QAEXPAPAUHyperLink@xlslib_core@@AAPAU23@@Z
	??$_Cons_val@V?$allocator@PAVworksheet@xlslib_core@@@std@@PAVworksheet@xlslib_core@@ABQAV34@@std@@YAXAAV?$allocator@PAVworksheet@xlslib_core@@@0@PAPAVworksheet@xlslib_core@@ABQAV23@@Z
	??$_Cons_val@V?$allocator@PAVformat_t@xlslib_core@@@std@@PAVformat_t@xlslib_core@@AAPAV34@@std@@YAXAAV?$allocator@PAVformat_t@xlslib_core@@@0@PAPAVformat_t@xlslib_core@@AAPAV23@@Z
	?xformat@workbook@xlslib_core@@QAEPAVxf_t@2@PAVfont_t@2@@Z
	?construct@?$allocator@PAVworksheet@xlslib_core@@@std@@QAEXPAPAVworksheet@xlslib_core@@ABQAV34@@Z
	??$construct@AAPAVCOleProp@xlslib_core@@@?$allocator@PAVCOleProp@xlslib_core@@@std@@QAEXPAPAVCOleProp@xlslib_core@@AAPAV23@@Z
	??$construct@AAPAVfont_t@xlslib_core@@@?$allocator@PAVfont_t@xlslib_core@@@std@@QAEXPAPAVfont_t@xlslib_core@@AAPAV23@@Z
	?none@?$_Locbase@H@std@@2HB
	??$construct@AAI@?$allocator@I@std@@QAEXPAIAAI@Z
	??$_Cons_val@V?$allocator@PAUcolinfo_t@xlslib_core@@@std@@PAUcolinfo_t@xlslib_core@@AAPAU34@@std@@YAXAAV?$allocator@PAUcolinfo_t@xlslib_core@@@0@PAPAUcolinfo_t@xlslib_core@@AAPAU23@@Z
	?construct@?$allocator@PAVboundsheet_t@xlslib_core@@@std@@QAEXPAPAVboundsheet_t@xlslib_core@@ABQAV34@@Z
	??$_Construct@PAUDataValidation@xlslib_core@@ABQAU12@@std@@YAXPAPAUDataValidation@xlslib_core@@ABQAU12@@Z
	?GetDataSize@CUnit@xlslib_core@@QBEIXZ
	??$_Construct@PAVrange_t@xlslib_core@@ABQAV12@@std@@YAXPAPAVrange_t@xlslib_core@@ABQAV12@@Z
	??$_Cons_val@V?$allocator@PAVHPSFitem@xlslib_core@@@std@@PAVHPSFitem@xlslib_core@@AAPAV34@@std@@YAXAAV?$allocator@PAVHPSFitem@xlslib_core@@@0@PAPAVHPSFitem@xlslib_core@@AAPAV23@@Z
	??$_Umove@PAPAVformula_t@xlslib_core@@@?$vector@PAVformula_t@xlslib_core@@V?$allocator@PAVformula_t@xlslib_core@@@std@@@std@@IAEPAPAVformula_t@xlslib_core@@PAPAV23@00@Z
	??$_Umove@PAPAVrange@xlslib_core@@@?$vector@PAVrange@xlslib_core@@V?$allocator@PAVrange@xlslib_core@@@std@@@std@@IAEPAPAVrange@xlslib_core@@PAPAV23@00@Z
	??$_Umove@PAPAVfont_t@xlslib_core@@@?$vector@PAVfont_t@xlslib_core@@V?$allocator@PAVfont_t@xlslib_core@@@std@@@std@@IAEPAPAVfont_t@xlslib_core@@PAPAV23@00@Z
	??$_Umove@PAPAVworksheet@xlslib_core@@@?$vector@PAVworksheet@xlslib_core@@V?$allocator@PAVworksheet@xlslib_core@@@std@@@std@@IAEPAPAVworksheet@xlslib_core@@PAPAV23@00@Z
	??$_Ptr_cat@PAVCOleProp@xlslib_core@@PAV12@@std@@YA?AU_Scalar_ptr_iterator_tag@0@PAPAVCOleProp@xlslib_core@@0@Z
	??$_Umove@PAPAVformat_t@xlslib_core@@@?$vector@PAVformat_t@xlslib_core@@V?$allocator@PAVformat_t@xlslib_core@@@std@@@std@@IAEPAPAVformat_t@xlslib_core@@PAPAV23@00@Z
	??$_Umove@PAPAUDataValidation@xlslib_core@@@?$vector@PAUDataValidation@xlslib_core@@V?$allocator@PAUDataValidation@xlslib_core@@@std@@@std@@IAEPAPAUDataValidation@xlslib_core@@PAPAU23@00@Z
	??$_Umove@PAPAVxf_t@xlslib_core@@@?$vector@PAVxf_t@xlslib_core@@V?$allocator@PAVxf_t@xlslib_core@@@std@@@std@@IAEPAPAVxf_t@xlslib_core@@PAPAV23@00@Z
	??$_Umove@PAPAUstyle_t@xlslib_core@@@?$vector@PAUstyle_t@xlslib_core@@V?$allocator@PAUstyle_t@xlslib_core@@@std@@@std@@IAEPAPAUstyle_t@xlslib_core@@PAPAU23@00@Z
	??$_Umove@PAPBVlabel_t@xlslib_core@@@?$vector@PBVlabel_t@xlslib_core@@V?$allocator@PBVlabel_t@xlslib_core@@@std@@@std@@IAEPAPBVlabel_t@xlslib_core@@PAPBV23@00@Z
	??$_Allocate@Urowblocksize_t@xlslib_core@@@std@@YAPAUrowblocksize_t@xlslib_core@@IPAU12@@Z
	?_Insert@?$_Tree@V?$_Tset_traits@PAVcell_t@xlslib_core@@Vinsertsort@2@V?$allocator@PAVcell_t@xlslib_core@@@std@@$0A@@std@@@std@@QAE?AV?$_Tree_const_iterator@V?$_Tree_val@V?$_Tset_traits@PAVcell_t@xlslib_core@@Vinsertsort@2@V?$allocator@PAVcell_t@xlslib_core@@@std@@$0A@@std@@@std@@@2@V32@PAU_Node@?$_Tree_nod@V?$_Tset_traits@PAVcell_t@xlslib_core@@Vinsertsort@2@V?$allocator@PAVcell_t@xlslib_core@@@std@@$0A@@std@@@2@@Z
	?GetSheetName@boundsheet_t@xlslib_core@@QBEABV?$basic_string@GU?$char_traits@G@std@@V?$allocator@G@2@@std@@XZ
	?_Linsert@?$_Tree@V?$_Tset_traits@PAVrowheight_t@xlslib_core@@Vrowheightsort@2@V?$allocator@PAVrowheight_t@xlslib_core@@@std@@$0A@@std@@@std@@QAE?AU?$pair@V?$_Tree_const_iterator@V?$_Tree_val@V?$_Tset_traits@PAVrowheight_t@xlslib_core@@Vrowheightsort@2@V?$allocator@PAVrowheight_t@xlslib_core@@@std@@$0A@@std@@@std@@@std@@_N@2@PAU_Node@?$_Tree_nod@V?$_Tset_traits@PAVrowheight_t@xlslib_core@@Vrowheightsort@2@V?$allocator@PAVrowheight_t@xlslib_core@@@std@@$0A@@std@@@2@_N@Z
	?_Insert@?$_Tree@V?$_Tset_traits@PAUcolinfo_t@xlslib_core@@Vcolinfosort@2@V?$allocator@PAUcolinfo_t@xlslib_core@@@std@@$0A@@std@@@std@@IAE?AV?$_Tree_const_iterator@V?$_Tree_val@V?$_Tset_traits@PAUcolinfo_t@xlslib_core@@Vcolinfosort@2@V?$allocator@PAUcolinfo_t@xlslib_core@@@std@@$0A@@std@@@std@@@2@_NPAU_Node@?$_Tree_nod@V?$_Tset_traits@PAUcolinfo_t@xlslib_core@@Vcolinfosort@2@V?$allocator@PAUcolinfo_t@xlslib_core@@@std@@$0A@@std@@@2@1@Z
	?_Insert@?$_Tree@V?$_Tset_traits@PAVcell_t@xlslib_core@@Vinsertsort@2@V?$allocator@PAVcell_t@xlslib_core@@@std@@$0A@@std@@@std@@IAE?AV?$_Tree_const_iterator@V?$_Tree_val@V?$_Tset_traits@PAVcell_t@xlslib_core@@Vinsertsort@2@V?$allocator@PAVcell_t@xlslib_core@@@std@@$0A@@std@@@std@@@2@_NPAU_Node@?$_Tree_nod@V?$_Tset_traits@PAVcell_t@xlslib_core@@Vinsertsort@2@V?$allocator@PAVcell_t@xlslib_core@@@std@@$0A@@std@@@2@1@Z
	??$_Move@PAUrowblocksize_t@xlslib_core@@PAU12@@std@@YAPAUrowblocksize_t@xlslib_core@@PAU12@00@Z
	??$_Move@PAUrowblocksize_t@xlslib_core@@PAU12@@std@@YAPAUrowblocksize_t@xlslib_core@@PAU12@00U_Nonscalar_ptr_iterator_tag@0@@Z
	??$_Ptr_cat@PAVformat_t@xlslib_core@@PAV12@@std@@YA?AU_Scalar_ptr_iterator_tag@0@PAPAVformat_t@xlslib_core@@0@Z
	??$_Ptr_cat@PAVxf_t@xlslib_core@@PAV12@@std@@YA?AU_Scalar_ptr_iterator_tag@0@PAPAVxf_t@xlslib_core@@0@Z
	??$_Ptr_cat@NN@std@@YA?AU_Scalar_ptr_iterator_tag@0@PAN0@Z
	??0COleDoc@xlslib_core@@QAE@XZ
	??$_Ptr_cat@V?$basic_string@DU?$char_traits@D@std@@V?$allocator@D@2@@std@@V12@@std@@YA?AU_Nonscalar_ptr_iterator_tag@0@PAV?$basic_string@DU?$char_traits@D@std@@V?$allocator@D@2@@0@0@Z
	??$_Ptr_cat@VCUnitStore@xlslib_core@@V12@@std@@YA?AU_Nonscalar_ptr_iterator_tag@0@PAVCUnitStore@xlslib_core@@0@Z
	??$_Ptr_cat@PAVboundsheet_t@xlslib_core@@PAV12@@std@@YA?AU_Scalar_ptr_iterator_tag@0@PAPAVboundsheet_t@xlslib_core@@0@Z
	??$_Ptr_cat@II@std@@YA?AU_Scalar_ptr_iterator_tag@0@PAI0@Z
	??$_Ptr_cat@PAVrange@xlslib_core@@PAV12@@std@@YA?AU_Scalar_ptr_iterator_tag@0@PAPAVrange@xlslib_core@@0@Z
	??$_Ptr_cat@PBVlabel_t@xlslib_core@@PBV12@@std@@YA?AU_Scalar_ptr_iterator_tag@0@PAPBVlabel_t@xlslib_core@@0@Z
	??$_Uninitialized_move@PAUrowblocksize_t@xlslib_core@@PAU12@V?$allocator@Urowblocksize_t@xlslib_core@@@std@@@std@@YAPAUrowblocksize_t@xlslib_core@@PAU12@00AAV?$allocator@Urowblocksize_t@xlslib_core@@@0@@Z
	?_Buynode@?$_Tree_val@V?$_Tset_traits@PAVHPSFitem@xlslib_core@@Vinsertsort2@2@V?$allocator@PAVHPSFitem@xlslib_core@@@std@@$0A@@std@@@std@@QAEPAU_Node@?$_Tree_nod@V?$_Tset_traits@PAVHPSFitem@xlslib_core@@Vinsertsort2@2@V?$allocator@PAVHPSFitem@xlslib_core@@@std@@$0A@@std@@@2@XZ
	?_Buynode@?$_Tree_val@V?$_Tset_traits@PAUcolinfo_t@xlslib_core@@Vcolinfosort@2@V?$allocator@PAUcolinfo_t@xlslib_core@@@std@@$0A@@std@@@std@@QAEPAU_Node@?$_Tree_nod@V?$_Tset_traits@PAUcolinfo_t@xlslib_core@@Vcolinfosort@2@V?$allocator@PAUcolinfo_t@xlslib_core@@@std@@$0A@@std@@@2@XZ
	??$_Uninit_move@PAUrowblocksize_t@xlslib_core@@PAU12@V?$allocator@Urowblocksize_t@xlslib_core@@@std@@U12@@std@@YAPAUrowblocksize_t@xlslib_core@@PAU12@00AAV?$allocator@Urowblocksize_t@xlslib_core@@@0@0U_Nonscalar_ptr_iterator_tag@0@@Z
	??$_Cons_val@V?$allocator@Urowblocksize_t@xlslib_core@@@std@@Urowblocksize_t@xlslib_core@@AAU34@@std@@YAXAAV?$allocator@Urowblocksize_t@xlslib_core@@@0@PAUrowblocksize_t@xlslib_core@@AAU23@@Z
	?compare@?$basic_string@DU?$char_traits@D@std@@V?$allocator@D@2@@std@@QBEHIIPBDI@Z
	?construct@?$allocator@Urowblocksize_t@xlslib_core@@@std@@QAEXPAUrowblocksize_t@xlslib_core@@$$QAU34@@Z
	??$_Cons_val@V?$allocator@Urowblocksize_t@xlslib_core@@@std@@Urowblocksize_t@xlslib_core@@U34@@std@@YAXAAV?$allocator@Urowblocksize_t@xlslib_core@@@0@PAUrowblocksize_t@xlslib_core@@$$QAU23@@Z
	??$_Cons_val@V?$allocator@Urowblocksize_t@xlslib_core@@@std@@Urowblocksize_t@xlslib_core@@ABU34@@std@@YAXAAV?$allocator@Urowblocksize_t@xlslib_core@@@0@PAUrowblocksize_t@xlslib_core@@ABU23@@Z
	?addItem@hpsf_doc_t@xlslib_core@@QAEXGI@Z
	??0CSummaryInfo@xlslib_core@@QAE@XZ
	??1CSummaryInfo@xlslib_core@@UAE@XZ
	?property@CSummaryInfo@xlslib_core@@QAE_NW4property_t@2@ABV?$basic_string@DU?$char_traits@D@std@@V?$allocator@D@2@@std@@@Z
	??0CUnit@xlslib_core@@IAE@AAVCDataStorage@1@@Z
	??0CUnit@xlslib_core@@AAE@ABV01@@Z
	?SetValueAt8@CUnit@xlslib_core@@QAEDEI@Z
	?AddValue64@CUnit@xlslib_core@@QAED_K@Z
	?EncodeFP2I64@CUnit@xlslib_core@@SA_KN@Z
	?GetValue32From@CUnit@xlslib_core@@QBEDPAII@Z
	?AddDataArray@CUnit@xlslib_core@@QAEDPBEI@Z
	?AddFixedDataArray@CUnit@xlslib_core@@QAEDEI@Z
	?AddUnicodeString@CUnit@xlslib_core@@QAEDABV?$basic_string@GU?$char_traits@G@std@@V?$allocator@G@2@@std@@W4XlsUnicodeStringFormat_t@12@@Z
	?UnicodeStringLength@CUnit@xlslib_core@@QAEIABV?$basic_string@GU?$char_traits@G@std@@V?$allocator@G@2@@std@@AAIAA_NW4XlsUnicodeStringFormat_t@12@@Z
	??ACUnit@xlslib_core@@QBEAAEI@Z
	?Init@CUnit@xlslib_core@@IAEDPBEII@Z
	?Append@CUnit@xlslib_core@@QAEDABV12@@Z
	?InitFill@CUnit@xlslib_core@@IAEDEI@Z
	?GetBuffer@CUnit@xlslib_core@@QBEPBEXZ
	?SetSize@window1@xlslib_core@@QAEXGG@Z
	__CTA2?AVbad_cast@std@@
	?SetFirstTab@window1@xlslib_core@@QAEXG@Z
	?SetTabBarWidth@window1@xlslib_core@@QAEXG@Z
	?sheet@workbook@xlslib_core@@QAEPAVworksheet@2@ABV?$basic_string@_WU?$char_traits@_W@std@@V?$allocator@_W@2@@std@@@Z
	?GetFormulaFactory@workbook@xlslib_core@@QAEAAVexpression_node_factory_t@2@XZ
	?font@workbook@xlslib_core@@QAEPAVfont_t@2@ABV?$basic_string@DU?$char_traits@D@std@@V?$allocator@D@2@@std@@@Z
	?font@workbook@xlslib_core@@QAEPAVfont_t@2@E@Z
	?xformat@workbook@xlslib_core@@QAEPAVxf_t@2@XZ
	?xformat@workbook@xlslib_core@@QAEPAVxf_t@2@PAVformat_t@2@@Z
	?xformat@workbook@xlslib_core@@QAEPAVxf_t@2@PAVfont_t@2@PAVformat_t@2@@Z
	?setColor@workbook@xlslib_core@@QAE_NEEEE@Z
	?SortList@COleFileSystem@xlslib_core@@QAEXAAV?$vector@PAVCOleProp@xlslib_core@@V?$allocator@PAVCOleProp@xlslib_core@@@std@@@std@@@Z
	xlsWorkBookWindSize
	?windSize@workbook@xlslib_core@@QAEXGG@Z
	??4?$basic_string@DU?$char_traits@D@std@@V?$allocator@D@2@@std@@QAEAAV01@D@Z
	?back@?$vector@PAVworksheet@xlslib_core@@V?$allocator@PAVworksheet@xlslib_core@@@std@@@std@@QAEAAPAVworksheet@xlslib_core@@XZ
	??M?$_Vector_const_iterator@V?$_Vector_val@PAVworksheet@xlslib_core@@V?$allocator@PAVworksheet@xlslib_core@@@std@@@std@@@std@@QBE_NABV01@@Z
	??G?$_Vector_iterator@V?$_Vector_val@PAVworksheet@xlslib_core@@V?$allocator@PAVworksheet@xlslib_core@@@std@@@std@@@std@@QBE?AV01@H@Z
	?append@?$basic_string@DU?$char_traits@D@std@@V?$allocator@D@2@@std@@QAEAAV12@PBDI@Z
	??0CBinFile@xlslib_core@@QAE@XZ
	?Open@CBinFile@xlslib_core@@QAEHABV?$basic_string@DU?$char_traits@D@std@@V?$allocator@D@2@@std@@@Z
	?Close@CBinFile@xlslib_core@@QAEHXZ
	?Write@CBinFile@xlslib_core@@QAEHAAVCUnit@2@@Z
	?WriteByte@CBinFile@xlslib_core@@QAEHE@Z
	?WriteUnsigned16@CBinFile@xlslib_core@@QAEHG@Z
	?WriteUnsigned32@CBinFile@xlslib_core@@QAEHI@Z
	?Write@CBinFile@xlslib_core@@QAEHPAEI@Z
	?WriteByteArray@CBinFile@xlslib_core@@QAEHPBEI@Z
	?write_service@CBinFile@xlslib_core@@AAEHPBDI@Z
	?SerializeFixedArray@CBinFile@xlslib_core@@QAEHEI@Z
	??0?$basic_ofstream@DU?$char_traits@D@std@@@std@@QAE@XZ
	??0?$_String_val@GV?$allocator@G@std@@@std@@QAE@V?$allocator@G@1@@Z
	??1?$basic_ofstream@DU?$char_traits@D@std@@@std@@UAE@XZ
	?is_open@?$basic_ofstream@DU?$char_traits@D@std@@@std@@QBE_NXZ
	?open@?$basic_ofstream@DU?$char_traits@D@std@@@std@@QAEXPBDHH@Z
	?close@?$basic_ofstream@DU?$char_traits@D@std@@@std@@QAEXXZ
	?_Lock@?$basic_filebuf@DU?$char_traits@D@std@@@std@@UAEXXZ
	?underflow@?$basic_filebuf@DU?$char_traits@D@std@@@std@@MAEHXZ
	?seekoff@?$basic_filebuf@DU?$char_traits@D@std@@@std@@MAE?AV?$fpos@H@2@_JHH@Z
	?COLOR_OPTION_TABLE@font_t@xlslib_core@@0QBEB
	?setbuf@?$basic_filebuf@DU?$char_traits@D@std@@@std@@MAEPAV?$basic_streambuf@DU?$char_traits@D@std@@@2@PAD_J@Z
	??0?$basic_filebuf@DU?$char_traits@D@std@@@std@@QAE@PAU_iobuf@@@Z
	?is_open@?$basic_filebuf@DU?$char_traits@D@std@@@std@@QBE_NXZ
	?close@?$basic_filebuf@DU?$char_traits@D@std@@@std@@QAEPAV12@XZ
	??0?$fpos@H@std@@QAE@H_J@Z
	??$use_facet@V?$codecvt@DDH@std@@@std@@YAABV?$codecvt@DDH@0@ABVlocale@0@@Z
	?DumpData@COleDoc@xlslib_core@@AAEHXZ
	?DumpDepots@COleDoc@xlslib_core@@AAEHUblocks@2@@Z
	??G?$_Vector_const_iterator@V?$_Vector_val@PAVCOleProp@xlslib_core@@V?$allocator@PAVCOleProp@xlslib_core@@@std@@@std@@@std@@QBEHABV01@@Z
	?DumpFileSystem@COleDoc@xlslib_core@@AAEHXZ
	?GetUnicodeName@COleDoc@xlslib_core@@AAEIPBDPAPAD@Z
	?compare@?$char_traits@D@std@@SAHPBD0I@Z
	??0COleFileSystem@xlslib_core@@QAE@XZ
	?SearchNode@COleFileSystem@xlslib_core@@QAEHPAVCOleProp@2@AAV?$list@PAV?$basic_string@DU?$char_traits@D@std@@V?$allocator@D@2@@std@@V?$allocator@PAV?$basic_string@DU?$char_traits@D@std@@V?$allocator@D@2@@std@@@2@@std@@AAV?$_Vector_iterator@V?$_Vector_val@PAVCOleProp@xlslib_core@@V?$allocator@PAVCOleProp@xlslib_core@@@std@@@std@@@5@@Z
	?AddDirectory@COleFileSystem@xlslib_core@@QAEHABV?$basic_string@DU?$char_traits@D@std@@V?$allocator@D@2@@std@@@Z
	?AddFile@COleFileSystem@xlslib_core@@QAEHABV?$basic_string@DU?$char_traits@D@std@@V?$allocator@D@2@@std@@PAVCDataStorage@2@@Z
	?GetTotalDataSize@COleFileSystem@xlslib_core@@QAEIXZ
	?GetNumDataFiles@COleFileSystem@xlslib_core@@QAEIXZ
	?GetRootEntry@COleFileSystem@xlslib_core@@QAEAAVCOleProp@2@XZ
	?_Parent@?$_Tree_val@V?$_Tset_traits@PAVrowheight_t@xlslib_core@@Vrowheightsort@2@V?$allocator@PAVrowheight_t@xlslib_core@@@std@@$0A@@std@@@std@@SAAAPAU_Node@?$_Tree_nod@V?$_Tset_traits@PAVrowheight_t@xlslib_core@@Vrowheightsort@2@V?$allocator@PAVrowheight_t@xlslib_core@@@std@@$0A@@std@@@2@PAU342@@Z
	?_Parent@?$_Tree_val@V?$_Tset_traits@PAUcolinfo_t@xlslib_core@@Vcolinfosort@2@V?$allocator@PAUcolinfo_t@xlslib_core@@@std@@$0A@@std@@@std@@SAAAPAU_Node@?$_Tree_nod@V?$_Tset_traits@PAUcolinfo_t@xlslib_core@@Vcolinfosort@2@V?$allocator@PAUcolinfo_t@xlslib_core@@@std@@$0A@@std@@@2@PAU342@@Z
	?_Parent@?$_Tree_val@V?$_Tset_traits@PAVHPSFitem@xlslib_core@@Vinsertsort2@2@V?$allocator@PAVHPSFitem@xlslib_core@@@std@@$0A@@std@@@std@@SAAAPAU_Node@?$_Tree_nod@V?$_Tset_traits@PAVHPSFitem@xlslib_core@@Vinsertsort2@2@V?$allocator@PAVHPSFitem@xlslib_core@@@std@@$0A@@std@@@2@PAU342@@Z
	?_Prevnode@?$_List_val@PAV?$basic_string@DU?$char_traits@D@std@@V?$allocator@D@2@@std@@V?$allocator@PAV?$basic_string@DU?$char_traits@D@std@@V?$allocator@D@2@@std@@@2@@std@@SAAAPAU_Node@?$_List_nod@PAV?$basic_string@DU?$char_traits@D@std@@V?$allocator@D@2@@std@@V?$allocator@PAV?$basic_string@DU?$char_traits@D@std@@V?$allocator@D@2@@std@@@2@@2@PAU342@@Z
	??A?$basic_string@DU?$char_traits@D@std@@V?$allocator@D@2@@std@@QBEABDI@Z
	?compare@?$basic_string@DU?$char_traits@D@std@@V?$allocator@D@2@@std@@QBEHABV12@@Z
	??0?$list@PAV?$basic_string@DU?$char_traits@D@std@@V?$allocator@D@2@@std@@V?$allocator@PAV?$basic_string@DU?$char_traits@D@std@@V?$allocator@D@2@@std@@@2@@std@@QAE@XZ
	?begin@?$list@PAV?$basic_string@DU?$char_traits@D@std@@V?$allocator@D@2@@std@@V?$allocator@PAV?$basic_string@DU?$char_traits@D@std@@V?$allocator@D@2@@std@@@2@@std@@QAE?AV?$_List_iterator@V?$_List_val@PAV?$basic_string@DU?$char_traits@D@std@@V?$allocator@D@2@@std@@V?$allocator@PAV?$basic_string@DU?$char_traits@D@std@@V?$allocator@D@2@@std@@@2@@std@@@2@XZ
	?empty@?$list@PAV?$basic_string@DU?$char_traits@D@std@@V?$allocator@D@2@@std@@V?$allocator@PAV?$basic_string@DU?$char_traits@D@std@@V?$allocator@D@2@@std@@@2@@std@@QBE_NXZ
	?pop_front@?$list@PAV?$basic_string@DU?$char_traits@D@std@@V?$allocator@D@2@@std@@V?$allocator@PAV?$basic_string@DU?$char_traits@D@std@@V?$allocator@D@2@@std@@@2@@std@@QAEXXZ
	??E?$_List_const_iterator@V?$_List_val@PAV?$basic_string@DU?$char_traits@D@std@@V?$allocator@D@2@@std@@V?$allocator@PAV?$basic_string@DU?$char_traits@D@std@@V?$allocator@D@2@@std@@@2@@std@@@std@@QAEAAV01@XZ
	?_Tidy@?$list@PAV?$basic_string@DU?$char_traits@D@std@@V?$allocator@D@2@@std@@V?$allocator@PAV?$basic_string@DU?$char_traits@D@std@@V?$allocator@D@2@@std@@@2@@std@@QAEXXZ
	??0?$_List_val@PAV?$basic_string@DU?$char_traits@D@std@@V?$allocator@D@2@@std@@V?$allocator@PAV?$basic_string@DU?$char_traits@D@std@@V?$allocator@D@2@@std@@@2@@std@@QAE@V?$allocator@PAV?$basic_string@DU?$char_traits@D@std@@V?$allocator@D@2@@std@@@1@@Z
	??1?$_List_val@PAV?$basic_string@DU?$char_traits@D@std@@V?$allocator@D@2@@std@@V?$allocator@PAV?$basic_string@DU?$char_traits@D@std@@V?$allocator@D@2@@std@@@2@@std@@QAE@XZ
	??F?$_Vector_iterator@V?$_Vector_val@PAUstyle_t@xlslib_core@@V?$allocator@PAUstyle_t@xlslib_core@@@std@@@std@@@std@@QAEAAV01@XZ
	??F?$_Vector_iterator@V?$_Vector_val@PAVxf_t@xlslib_core@@V?$allocator@PAVxf_t@xlslib_core@@@std@@@std@@@std@@QAEAAV01@XZ
	??F?$_Vector_const_iterator@V?$_Vector_val@PAVfont_t@xlslib_core@@V?$allocator@PAVfont_t@xlslib_core@@@std@@@std@@@std@@QAEAAV01@XZ
	??F?$_Vector_const_iterator@V?$_Vector_val@PAUstyle_t@xlslib_core@@V?$allocator@PAUstyle_t@xlslib_core@@@std@@@std@@@std@@QAEAAV01@XZ
	??F?$_Vector_const_iterator@V?$_Vector_val@PAVboundsheet_t@xlslib_core@@V?$allocator@PAVboundsheet_t@xlslib_core@@@std@@@std@@@std@@QAEAAV01@XZ
	??Y?$_Vector_iterator@V?$_Vector_val@PAVworksheet@xlslib_core@@V?$allocator@PAVworksheet@xlslib_core@@@std@@@std@@@std@@QAEAAV01@H@Z
	??F?$_Vector_iterator@V?$_Vector_val@PAVformat_t@xlslib_core@@V?$allocator@PAVformat_t@xlslib_core@@@std@@@std@@@std@@QAEAAV01@XZ
	??F?$_Vector_const_iterator@V?$_Vector_val@PAVformat_t@xlslib_core@@V?$allocator@PAVformat_t@xlslib_core@@@std@@@std@@@std@@QAEAAV01@XZ
	??F?$_Vector_iterator@V?$_Vector_val@PAVCUnit@xlslib_core@@V?$allocator@PAVCUnit@xlslib_core@@@std@@@std@@@std@@QAEAAV01@XZ
	??Z?$_Vector_iterator@V?$_Vector_val@PAVworksheet@xlslib_core@@V?$allocator@PAVworksheet@xlslib_core@@@std@@@std@@@std@@QAEAAV01@H@Z
	??0?$_Tree_nod@V?$_Tset_traits@PAUcolinfo_t@xlslib_core@@Vcolinfosort@2@V?$allocator@PAUcolinfo_t@xlslib_core@@@std@@$0A@@std@@@std@@QAE@ABVcolinfosort@xlslib_core@@V?$allocator@PAUcolinfo_t@xlslib_core@@@1@@Z
	??0?$_Tset_traits@PAUcolinfo_t@xlslib_core@@Vcolinfosort@2@V?$allocator@PAUcolinfo_t@xlslib_core@@@std@@$0A@@std@@QAE@Vcolinfosort@xlslib_core@@@Z
	??0?$_List_nod@PAV?$basic_string@DU?$char_traits@D@std@@V?$allocator@D@2@@std@@V?$allocator@PAV?$basic_string@DU?$char_traits@D@std@@V?$allocator@D@2@@std@@@2@@std@@QAE@V?$allocator@PAV?$basic_string@DU?$char_traits@D@std@@V?$allocator@D@2@@std@@@1@@Z
	??0?$_Tset_traits@U?$pair@PAVxf_t@xlslib_core@@UborderedXft@2@@std@@VxfSorter@xlslib_core@@V?$allocator@U?$pair@PAVxf_t@xlslib_core@@UborderedXft@2@@std@@@2@$0A@@std@@QAE@VxfSorter@xlslib_core@@@Z
	??0?$_String_val@DV?$allocator@D@std@@@std@@QAE@V?$allocator@D@1@@Z
	??0?$_Tset_traits@PAVHPSFitem@xlslib_core@@Vinsertsort2@2@V?$allocator@PAVHPSFitem@xlslib_core@@@std@@$0A@@std@@QAE@Vinsertsort2@xlslib_core@@@Z
	??0?$_Tree_nod@V?$_Tset_traits@PAVHPSFitem@xlslib_core@@Vinsertsort2@2@V?$allocator@PAVHPSFitem@xlslib_core@@@std@@$0A@@std@@@std@@QAE@ABVinsertsort2@xlslib_core@@V?$allocator@PAVHPSFitem@xlslib_core@@@1@@Z
	??$?8DU?$char_traits@D@std@@V?$allocator@D@1@@std@@YA_NABV?$basic_string@DU?$char_traits@D@std@@V?$allocator@D@2@@0@0@Z
	??$sort@V?$_Vector_iterator@V?$_Vector_val@PAVCOleProp@xlslib_core@@V?$allocator@PAVCOleProp@xlslib_core@@@std@@@std@@@std@@P6A_NPBVCOleProp@xlslib_core@@0@Z@std@@YAXV?$_Vector_iterator@V?$_Vector_val@PAVCOleProp@xlslib_core@@V?$allocator@PAVCOleProp@xlslib_core@@@std@@@std@@@0@0P6A_NPBVCOleProp@xlslib_core@@1@Z@Z
	??$_Allocate@U_Node@?$_List_nod@PAV?$basic_string@DU?$char_traits@D@std@@V?$allocator@D@2@@std@@V?$allocator@PAV?$basic_string@DU?$char_traits@D@std@@V?$allocator@D@2@@std@@@2@@std@@@std@@YAPAU_Node@?$_List_nod@PAV?$basic_string@DU?$char_traits@D@std@@V?$allocator@D@2@@std@@V?$allocator@PAV?$basic_string@DU?$char_traits@D@std@@V?$allocator@D@2@@std@@@2@@0@IPAU120@@Z
	?push_back@?$list@PAV?$basic_string@DU?$char_traits@D@std@@V?$allocator@D@2@@std@@V?$allocator@PAV?$basic_string@DU?$char_traits@D@std@@V?$allocator@D@2@@std@@@2@@std@@QAEXABQAV?$basic_string@DU?$char_traits@D@std@@V?$allocator@D@2@@2@@Z
	??G?$_Vector_const_iterator@V?$_Vector_val@PAVCUnit@xlslib_core@@V?$allocator@PAVCUnit@xlslib_core@@@std@@@std@@@std@@QBEHABV01@@Z
	??G?$_Vector_const_iterator@V?$_Vector_val@PAVrange_t@xlslib_core@@V?$allocator@PAVrange_t@xlslib_core@@@std@@@std@@@std@@QBEHABV01@@Z
	??G?$_Vector_iterator@V?$_Vector_val@PAVCOleProp@xlslib_core@@V?$allocator@PAVCOleProp@xlslib_core@@@std@@@std@@@std@@QBEHABV?$_Vector_const_iterator@V?$_Vector_val@PAVCOleProp@xlslib_core@@V?$allocator@PAVCOleProp@xlslib_core@@@std@@@std@@@1@@Z
	??G?$_Vector_iterator@V?$_Vector_val@PAVCUnit@xlslib_core@@V?$allocator@PAVCUnit@xlslib_core@@@std@@@std@@@std@@QBEHABV?$_Vector_const_iterator@V?$_Vector_val@PAVCUnit@xlslib_core@@V?$allocator@PAVCUnit@xlslib_core@@@std@@@std@@@1@@Z
	?_Insert@?$list@PAV?$basic_string@DU?$char_traits@D@std@@V?$allocator@D@2@@std@@V?$allocator@PAV?$basic_string@DU?$char_traits@D@std@@V?$allocator@D@2@@std@@@2@@std@@QAEXV?$_List_const_iterator@V?$_List_val@PAV?$basic_string@DU?$char_traits@D@std@@V?$allocator@D@2@@std@@V?$allocator@PAV?$basic_string@DU?$char_traits@D@std@@V?$allocator@D@2@@std@@@2@@std@@@2@ABQAV?$basic_string@DU?$char_traits@D@std@@V?$allocator@D@2@@2@@Z
	?_Buynode@?$_List_val@PAV?$basic_string@DU?$char_traits@D@std@@V?$allocator@D@2@@std@@V?$allocator@PAV?$basic_string@DU?$char_traits@D@std@@V?$allocator@D@2@@std@@@2@@std@@QAEPAU_Node@?$_List_nod@PAV?$basic_string@DU?$char_traits@D@std@@V?$allocator@D@2@@std@@V?$allocator@PAV?$basic_string@DU?$char_traits@D@std@@V?$allocator@D@2@@std@@@2@@2@PAU342@0ABQAV?$basic_string@DU?$char_traits@D@std@@V?$allocator@D@2@@2@@Z
	??$_Sort@PAPAVCOleProp@xlslib_core@@HP6A_NPBV12@0@Z@std@@YAXPAPAVCOleProp@xlslib_core@@0HP6A_NPBV12@1@Z@Z
	??$sort_heap@PAPAVCOleProp@xlslib_core@@P6A_NPBV12@0@Z@std@@YAXPAPAVCOleProp@xlslib_core@@0P6A_NPBV12@1@Z@Z
	??$iter_swap@PAPAVCOleProp@xlslib_core@@PAPAV12@@std@@YAXPAPAVCOleProp@xlslib_core@@0@Z
	??$swap@PAVCOleProp@xlslib_core@@@std@@YAXAAPAVCOleProp@xlslib_core@@0@Z
	??$_Make_heap@PAPAVCOleProp@xlslib_core@@HPAV12@P6A_NPBV12@0@Z@std@@YAXPAPAVCOleProp@xlslib_core@@0P6A_NPBV12@1@ZPAH0@Z
	??$_Sort_heap@PAPAVCOleProp@xlslib_core@@P6A_NPBV12@0@Z@std@@YAXPAPAVCOleProp@xlslib_core@@0P6A_NPBV12@1@Z@Z
	??$_Insertion_sort1@PAPAVCOleProp@xlslib_core@@P6A_NPBV12@0@ZPAV12@@std@@YAXPAPAVCOleProp@xlslib_core@@0P6A_NPBV12@1@Z0@Z
	??$_Med3@PAPAVCOleProp@xlslib_core@@P6A_NPBV12@0@Z@std@@YAXPAPAVCOleProp@xlslib_core@@00P6A_NPBV12@1@Z@Z
	??$?0AAPAPAVCOleProp@xlslib_core@@AAPAPAV01@@?$pair@PAPAVCOleProp@xlslib_core@@PAPAV12@@std@@QAE@AAPAPAVCOleProp@xlslib_core@@0@Z
	??$?0AAV?$_Tree_const_iterator@V?$_Tree_val@V?$_Tset_traits@PAVHPSFitem@xlslib_core@@Vinsertsort2@2@V?$allocator@PAVHPSFitem@xlslib_core@@@std@@$0A@@std@@@std@@@std@@AAV01@@?$pair@V?$_Tree_const_iterator@V?$_Tree_val@V?$_Tset_traits@PAVHPSFitem@xlslib_core@@Vinsertsort2@2@V?$allocator@PAVHPSFitem@xlslib_core@@@std@@$0A@@std@@@std@@@std@@V12@@std@@QAE@AAV?$_Tree_const_iterator@V?$_Tree_val@V?$_Tset_traits@PAVHPSFitem@xlslib_core@@Vinsertsort2@2@V?$allocator@PAVHPSFitem@xlslib_core@@@std@@$0A@@std@@@std@@@1@0@Z
	??$?0AAV?$_Tree_const_iterator@V?$_Tree_val@V?$_Tset_traits@PAVcell_t@xlslib_core@@Vinsertsort@2@V?$allocator@PAVcell_t@xlslib_core@@@std@@$0A@@std@@@std@@@std@@AAV01@@?$_Pair_base@V?$_Tree_const_iterator@V?$_Tree_val@V?$_Tset_traits@PAVcell_t@xlslib_core@@Vinsertsort@2@V?$allocator@PAVcell_t@xlslib_core@@@std@@$0A@@std@@@std@@@std@@V12@@std@@QAE@AAV?$_Tree_const_iterator@V?$_Tree_val@V?$_Tset_traits@PAVcell_t@xlslib_core@@Vinsertsort@2@V?$allocator@PAVcell_t@xlslib_core@@@std@@$0A@@std@@@std@@@1@0@Z
	??$_Adjust_heap@PAPAVCOleProp@xlslib_core@@HPAV12@P6A_NPBV12@0@Z@std@@YAXPAPAVCOleProp@xlslib_core@@HH$$QAPAV12@P6A_NPBV12@2@Z@Z
	??$_Push_heap@PAPAVCOleProp@xlslib_core@@HPAV12@P6A_NPBV12@0@Z@std@@YAXPAPAVCOleProp@xlslib_core@@HH$$QAPAV12@P6A_NPBV12@2@Z@Z
	??$_Move_backward@PAPAVCOleProp@xlslib_core@@PAPAV12@@std@@YAPAPAVCOleProp@xlslib_core@@PAPAV12@00@Z
	??$_Pop_heap@PAPAVCOleProp@xlslib_core@@HPAV12@P6A_NPBV12@0@Z@std@@YAXPAPAVCOleProp@xlslib_core@@00$$QAPAV12@P6A_NPBV12@2@ZPAH@Z
	??0COleProp@xlslib_core@@QAE@XZ
	??0COleProp@xlslib_core@@QAE@HPBDPAVCDataStorage@1@@Z
	??1COleProp@xlslib_core@@QAE@XZ
	?SetName@COleProp@xlslib_core@@QAEHABV?$basic_string@DU?$char_traits@D@std@@V?$allocator@D@2@@std@@@Z
	?SetType@COleProp@xlslib_core@@QAEHE@Z
	?SetColor@COleProp@xlslib_core@@QAEHE@Z
	?GetColor@COleProp@xlslib_core@@QBEEXZ
	?GetNextIndex@COleProp@xlslib_core@@QBEHXZ
	?GetChildIndex@COleProp@xlslib_core@@QBEHXZ
	?SetStartBlock@COleProp@xlslib_core@@QAEHH@Z
	?GetStartBlock@COleProp@xlslib_core@@QBEHXZ
	?GetSize@COleProp@xlslib_core@@QBEIXZ
	?GetDataPointer@COleProp@xlslib_core@@QBEPAVCDataStorage@2@XZ
	?SetCreatedSecs@COleProp@xlslib_core@@QAEXH@Z
	?GetCreatedSecs@COleProp@xlslib_core@@QBEHXZ
	?GetCreatedDays@COleProp@xlslib_core@@QBEHXZ
	?GetModifiedDays@COleProp@xlslib_core@@QBEHXZ
	?_Rank@?$_Arithmetic_traits@G@std@@2HB
	?uppercase@?$_Iosb@H@std@@2W4_Fmtflags@12@B
	?_Rank@?$_Arithmetic_traits@I@std@@2HB
	?badbit@?$_Iosb@H@std@@2W4_Iostate@12@B
	?BACKPATCH_LEVEL_EVERYONE@CDataStorage@xlslib_core@@2GB
	?_Rank@?$_Arithmetic_traits@H@std@@2HB
	?ate@?$_Iosb@H@std@@2W4_Openmode@12@B
	?monetary@?$_Locbase@H@std@@2HB
	?_Rank@?$_Arithmetic_traits@J@std@@2HB
	?_Rank@?$_Arithmetic_traits@K@std@@2HB
	?_Rank@?$_Arithmetic_traits@_K@std@@2HB
	?_Rank@?$_Arithmetic_traits@_J@std@@2HB
	?_Rank@?$_Arithmetic_traits@M@std@@2HB
	?_Hardfail@?$_Iosb@H@std@@2W4_Iostate@12@B
	?showpoint@?$_Iosb@H@std@@2W4_Fmtflags@12@B
	?trunc@?$_Iosb@H@std@@2W4_Openmode@12@B
	?end@?$_Iosb@H@std@@2W4_Seekdir@12@B
	?failbit@?$_Iosb@H@std@@2W4_Iostate@12@B
	?_Rank@?$_Arithmetic_traits@C@std@@2HB
	?out@?$_Iosb@H@std@@2W4_Openmode@12@B
	?right@?$_Iosb@H@std@@2W4_Fmtflags@12@B
	?internal@?$_Iosb@H@std@@2W4_Fmtflags@12@B
	?fixed@?$_Iosb@H@std@@2W4_Fmtflags@12@B
	?floatfield@?$_Iosb@H@std@@2W4_Fmtflags@12@B
	?hexfloat@?$_Iosb@H@std@@2W4_Fmtflags@12@B
	?_Stdio@?$_Iosb@H@std@@2W4_Fmtflags@12@B
	?basefield@?$_Iosb@H@std@@2W4_Fmtflags@12@B
	?collate@?$_Locbase@H@std@@2HB
	?in@?$_Iosb@H@std@@2W4_Openmode@12@B
	?cur@?$_Iosb@H@std@@2W4_Seekdir@12@B
	?showbase@?$_Iosb@H@std@@2W4_Fmtflags@12@B
	?_Rank@?$_Arithmetic_traits@N@std@@2HB
	?numeric@?$_Locbase@H@std@@2HB
	?app@?$_Iosb@H@std@@2W4_Openmode@12@B
	?_Nocreate@?$_Iosb@H@std@@2W4_Openmode@12@B
	?left@?$_Iosb@H@std@@2W4_Fmtflags@12@B
	?value@?$integral_constant@_N$0A@@tr1@std@@2_NB
	?npos@?$basic_string@GU?$char_traits@G@std@@V?$allocator@G@2@@std@@2IB
	?DefaultInflateSize@CUnit@xlslib_core@@1IB
	?summaryFormat@xlslib_core@@3QBIB
	?docSummaryFormat@xlslib_core@@3QBIB
	?hpsfValues@xlslib_core@@3QBIB
	?BOLD_OPTION_TABLE@font_t@xlslib_core@@0QBGB
	?UNDERLINE_OPTION_TABLE@font_t@xlslib_core@@0QBEB
	?HALIGN_OPTIONS_TABLE@xf_t@xlslib_core@@0QBEB
	?TXTORI_OPTIONS_TABLE@xf_t@xlslib_core@@0QBEB
	?COLOR_OPTIONS_TABLE@xf_t@xlslib_core@@0QBEB
	?FILL_OPTIONS_TABLE@xf_t@xlslib_core@@0QBEB
	?_Stz@?$fpos@H@std@@0HB
	?beg@?$_Iosb@H@std@@2W4_Seekdir@12@B
	?value@?$integral_constant@I$0A@@tr1@std@@2IB
	__CTA3?AV?$basic_string@DU?$char_traits@D@std@@V?$allocator@D@2@@std@@
	__CTA2?AVbad_alloc@std@@
	__TI2?AVbad_alloc@std@@
	?_Psave@?$_Facetptr@V?$codecvt@DDH@std@@@std@@2PBVfacet@locale@2@B
